	.file	"B.cpp"
	.text
	.section	.text$_ZnwmPv,"x"
	.linkonce discard
	.p2align 4
	.globl	_ZnwmPv
	.def	_ZnwmPv;	.scl	2;	.type	32;	.endef
	.seh_proc	_ZnwmPv
_ZnwmPv:
.LFB284:
	pushq	%rbp
	.seh_pushreg	%rbp
	movq	%rsp, %rbp
	.seh_setframe	%rbp, 0
	.seh_endprologue
	movq	%rcx, 16(%rbp)
	movq	%rdx, 24(%rbp)
	movq	24(%rbp), %rax
	popq	%rbp
	ret
	.seh_endproc
	.section	.text$_ZdlPvS_,"x"
	.linkonce discard
	.p2align 4
	.globl	_ZdlPvS_
	.def	_ZdlPvS_;	.scl	2;	.type	32;	.endef
	.seh_proc	_ZdlPvS_
_ZdlPvS_:
.LFB286:
	pushq	%rbp
	.seh_pushreg	%rbp
	movq	%rsp, %rbp
	.seh_setframe	%rbp, 0
	.seh_endprologue
	movq	%rcx, 16(%rbp)
	movq	%rdx, 24(%rbp)
	nop
	popq	%rbp
	ret
	.seh_endproc
	.section .rdata,"dr"
_ZStL19piecewise_construct:
	.space 1
	.section	.text$_ZSt17__size_to_integerm,"x"
	.linkonce discard
	.p2align 4
	.globl	_ZSt17__size_to_integerm
	.def	_ZSt17__size_to_integerm;	.scl	2;	.type	32;	.endef
	.seh_proc	_ZSt17__size_to_integerm
_ZSt17__size_to_integerm:
.LFB595:
	pushq	%rbp
	.seh_pushreg	%rbp
	movq	%rsp, %rbp
	.seh_setframe	%rbp, 0
	.seh_endprologue
	movq	%rcx, 16(%rbp)
	movq	16(%rbp), %rax
	popq	%rbp
	ret
	.seh_endproc
	.section .rdata,"dr"
_ZStL13allocator_arg:
	.space 1
_ZStL6ignore:
	.space 1
.lcomm _ZStL8__ioinit,1,1
	.align 4
_ZN9__gnu_cxxL21__default_lock_policyE:
	.long	2
_ZStL10defer_lock:
	.space 1
_ZStL11try_to_lock:
	.space 1
_ZStL10adopt_lock:
	.space 1
	.align 4
_ZNSt15regex_constantsL5icaseE:
	.long	1
	.align 4
_ZNSt15regex_constantsL6nosubsE:
	.long	2
	.align 4
_ZNSt15regex_constantsL8optimizeE:
	.long	4
	.align 4
_ZNSt15regex_constantsL7collateE:
	.long	8
	.align 4
_ZNSt15regex_constantsL10ECMAScriptE:
	.long	16
	.align 4
_ZNSt15regex_constantsL5basicE:
	.long	32
	.align 4
_ZNSt15regex_constantsL8extendedE:
	.long	64
	.align 4
_ZNSt15regex_constantsL3awkE:
	.long	128
	.align 4
_ZNSt15regex_constantsL4grepE:
	.long	256
	.align 4
_ZNSt15regex_constantsL5egrepE:
	.long	512
	.align 4
_ZNSt15regex_constantsL12__polynomialE:
	.long	1024
	.align 4
_ZNSt15regex_constantsL13match_defaultE:
	.space 4
	.align 4
_ZNSt15regex_constantsL13match_not_bolE:
	.long	1
	.align 4
_ZNSt15regex_constantsL13match_not_eolE:
	.long	2
	.align 4
_ZNSt15regex_constantsL13match_not_bowE:
	.long	4
	.align 4
_ZNSt15regex_constantsL13match_not_eowE:
	.long	8
	.align 4
_ZNSt15regex_constantsL9match_anyE:
	.long	16
	.align 4
_ZNSt15regex_constantsL14match_not_nullE:
	.long	32
	.align 4
_ZNSt15regex_constantsL16match_continuousE:
	.long	64
	.align 4
_ZNSt15regex_constantsL16match_prev_availE:
	.long	128
	.align 4
_ZNSt15regex_constantsL14format_defaultE:
	.space 4
	.align 4
_ZNSt15regex_constantsL10format_sedE:
	.long	256
	.align 4
_ZNSt15regex_constantsL14format_no_copyE:
	.long	512
	.align 4
_ZNSt15regex_constantsL17format_first_onlyE:
	.long	1024
	.align 4
_ZNSt15regex_constantsL13error_collateE:
	.space 4
	.align 4
_ZNSt15regex_constantsL11error_ctypeE:
	.long	1
	.align 4
_ZNSt15regex_constantsL12error_escapeE:
	.long	2
	.align 4
_ZNSt15regex_constantsL13error_backrefE:
	.long	3
	.align 4
_ZNSt15regex_constantsL11error_brackE:
	.long	4
	.align 4
_ZNSt15regex_constantsL11error_parenE:
	.long	5
	.align 4
_ZNSt15regex_constantsL11error_braceE:
	.long	6
	.align 4
_ZNSt15regex_constantsL14error_badbraceE:
	.long	7
	.align 4
_ZNSt15regex_constantsL11error_rangeE:
	.long	8
	.align 4
_ZNSt15regex_constantsL11error_spaceE:
	.long	9
	.align 4
_ZNSt15regex_constantsL15error_badrepeatE:
	.long	10
	.align 4
_ZNSt15regex_constantsL16error_complexityE:
	.long	11
	.align 4
_ZNSt15regex_constantsL11error_stackE:
	.long	12
	.align 8
_ZNSt8__detailL19_S_invalid_state_idE:
	.quad	-1
	.section	.text$_ZSt3minImERKT_S2_S2_,"x"
	.linkonce discard
	.p2align 4
	.globl	_ZSt3minImERKT_S2_S2_
	.def	_ZSt3minImERKT_S2_S2_;	.scl	2;	.type	32;	.endef
	.seh_proc	_ZSt3minImERKT_S2_S2_
_ZSt3minImERKT_S2_S2_:
.LFB7855:
	pushq	%rbp
	.seh_pushreg	%rbp
	movq	%rsp, %rbp
	.seh_setframe	%rbp, 0
	.seh_endprologue
	movq	%rcx, 16(%rbp)
	movq	%rdx, 24(%rbp)
	movq	24(%rbp), %rax
	movq	(%rax), %rdx
	movq	16(%rbp), %rax
	movq	(%rax), %rax
	cmpq	%rax, %rdx
	jnb	.L7
	movq	24(%rbp), %rax
	jmp	.L8
.L7:
	movq	16(%rbp), %rax
.L8:
	popq	%rbp
	ret
	.seh_endproc
	.def	__main;	.scl	2;	.type	32;	.endef
	.section .rdata,"dr"
.LC0:
	.ascii "\12\0"
	.section	.text.startup,"x"
	.p2align 4
	.globl	main
	.def	main;	.scl	2;	.type	32;	.endef
	.seh_proc	main
main:
.LFB8373:
	pushq	%r15
	.seh_pushreg	%r15
	pushq	%r14
	.seh_pushreg	%r14
	pushq	%r13
	.seh_pushreg	%r13
	pushq	%r12
	.seh_pushreg	%r12
	pushq	%rdi
	.seh_pushreg	%rdi
	pushq	%rsi
	.seh_pushreg	%rsi
	pushq	%rbx
	.seh_pushreg	%rbx
	subq	$256, %rsp
	.seh_stackalloc	256
	.seh_endprologue
	call	__main
	xorl	%ecx, %ecx
	leaq	224(%rsp), %rsi
.LEHB0:
	call	_ZNSt8ios_base15sync_with_stdioEb
	movq	.refptr._ZSt3cin(%rip), %r12
	xorl	%edx, %edx
	leaq	16(%r12), %rcx
	call	_ZNSt9basic_iosIcSt11char_traitsIcEE3tieEPSo
	leaq	80(%rsp), %rdx
	movq	%r12, %rcx
	movq	$0, 80(%rsp)
	call	_ZNSirsERx
.LEHE0:
	movq	%rsi, %rcx
	call	_ZNSaIxEC1Ev
	leaq	96(%rsp), %rax
	movq	80(%rsp), %rdx
	movq	%rsi, %r8
	movq	%rax, %rcx
	movq	%rax, 40(%rsp)
.LEHB1:
	call	_ZNSt6vectorIxSaIxEEC1EmRKS0_
.LEHE1:
	movq	%rsi, %rcx
	leaq	128(%rsp), %r14
	call	_ZNSaIxED1Ev
	movq	%rsi, %rcx
	call	_ZNSaIxEC1Ev
	movq	80(%rsp), %rdx
	movq	%rsi, %r8
	movq	%r14, %rcx
.LEHB2:
	call	_ZNSt6vectorIxSaIxEEC1EmRKS0_
.LEHE2:
	movq	%rsi, %rcx
	leaq	160(%rsp), %r15
	call	_ZNSaIxED1Ev
	movq	%rsi, %rcx
	call	_ZNSaIxEC1Ev
	movq	80(%rsp), %rdx
	movq	%rsi, %r8
	movq	%r15, %rcx
.LEHB3:
	call	_ZNSt6vectorIxSaIxEEC1EmRKS0_
.LEHE3:
	movq	%rsi, %rcx
	call	_ZNSaIxED1Ev
	cmpq	$0, 80(%rsp)
	js	.L10
	movq	.refptr._ZSt3cin(%rip), %rdi
	movq	$-1, %rbx
	.p2align 4,,10
	.p2align 3
.L11:
	movq	40(%rsp), %rcx
	movq	%rbx, %rdx
	call	_ZNSt6vectorIxSaIxEEixEm
	movq	%rdi, %rcx
	movq	%rax, %rdx
.LEHB4:
	call	_ZNSirsERx
	movq	%rbx, %rdx
	movq	%r14, %rcx
	call	_ZNSt6vectorIxSaIxEEixEm
	movq	%rdi, %rcx
	movq	%rax, %rdx
	call	_ZNSirsERx
	movq	%rbx, %rdx
	movq	%r15, %rcx
	call	_ZNSt6vectorIxSaIxEEixEm
	movq	%rdi, %rcx
	movq	%rax, %rdx
	call	_ZNSirsERx
.LEHE4:
	addq	$1, %rbx
	cmpq	%rbx, 80(%rsp)
	jg	.L11
.L10:
	leaq	79(%rsp), %rbx
	leaq	78(%rsp), %rdi
	movq	%rbx, %rcx
	call	_ZNSaISt6vectorIxSaIxEEEC1Ev
	movq	%rdi, %rcx
	call	_ZNSaIxEC1Ev
	movq	%rdi, %r9
	leaq	88(%rsp), %r8
	movq	%rsi, %rcx
	movq	$-1, 88(%rsp)
	movl	$3, %edx
.LEHB5:
	call	_ZNSt6vectorIxSaIxEEC1EmRKxRKS0_
.LEHE5:
	leaq	192(%rsp), %r12
	movq	80(%rsp), %rdx
	movq	%rbx, %r9
	movq	%rsi, %r8
	movq	%r12, %rcx
.LEHB6:
	call	_ZNSt6vectorIS_IxSaIxEESaIS1_EEC1EmRKS1_RKS2_
.LEHE6:
	movq	%rsi, %rcx
	call	_ZNSt6vectorIxSaIxEED1Ev
	movq	%rdi, %rcx
	call	_ZNSaIxED1Ev
	movq	%rbx, %rcx
	call	_ZNSaISt6vectorIxSaIxEEED1Ev
	movq	40(%rsp), %rcx
	xorl	%edx, %edx
	call	_ZNSt6vectorIxSaIxEEixEm
	xorl	%edx, %edx
	movq	%r14, %rcx
	movq	(%rax), %rax
	movq	%rax, 224(%rsp)
	call	_ZNSt6vectorIxSaIxEEixEm
	xorl	%edx, %edx
	movq	%r15, %rcx
	movq	(%rax), %rax
	movq	%rax, 232(%rsp)
	call	_ZNSt6vectorIxSaIxEEixEm
	xorl	%edx, %edx
	movq	%r12, %rcx
	movq	(%rax), %rax
	movq	%rax, 240(%rsp)
	call	_ZNSt6vectorIS_IxSaIxEESaIS1_EEixEm
	leaq	48(%rsp), %rdx
	movq	%rsi, 48(%rsp)
	movq	$3, 56(%rsp)
	movq	%rax, %rcx
.LEHB7:
	call	_ZNSt6vectorIxSaIxEEaSESt16initializer_listIxE
	movq	80(%rsp), %rdx
	testq	%rdx, %rdx
	jle	.L12
	xorl	%ebx, %ebx
	.p2align 4,,10
	.p2align 3
.L13:
	leaq	-1(%rbx), %r13
	movq	%r12, %rcx
	movq	%r13, %rdx
	call	_ZNSt6vectorIS_IxSaIxEESaIS1_EEixEm
	movl	$2, %edx
	movq	%rax, %rcx
	call	_ZNSt6vectorIxSaIxEEixEm
	movq	%r13, %rdx
	movq	%r12, %rcx
	movq	%rax, %rsi
	call	_ZNSt6vectorIS_IxSaIxEESaIS1_EEixEm
	movl	$1, %edx
	movq	%rax, %rcx
	call	_ZNSt6vectorIxSaIxEEixEm
	movq	%rsi, %rdx
	movq	%rax, %rcx
	call	_ZSt3maxIxERKT_S2_S2_
	movq	40(%rsp), %rcx
	movq	%rbx, %rdx
	movq	(%rax), %rsi
	call	_ZNSt6vectorIxSaIxEEixEm
	movq	%rbx, %rdx
	movq	%r12, %rcx
	movq	(%rax), %rdi
	call	_ZNSt6vectorIS_IxSaIxEESaIS1_EEixEm
	xorl	%edx, %edx
	movq	%rax, %rcx
	addq	%rdi, %rsi
	call	_ZNSt6vectorIxSaIxEEixEm
	movq	%r13, %rdx
	movq	%r12, %rcx
	movq	%rsi, (%rax)
	call	_ZNSt6vectorIS_IxSaIxEESaIS1_EEixEm
	xorl	%edx, %edx
	movq	%rax, %rcx
	call	_ZNSt6vectorIxSaIxEEixEm
	movq	%r13, %rdx
	movq	%r12, %rcx
	movq	%rax, %rsi
	call	_ZNSt6vectorIS_IxSaIxEESaIS1_EEixEm
	movl	$2, %edx
	movq	%rax, %rcx
	call	_ZNSt6vectorIxSaIxEEixEm
	movq	%rsi, %rdx
	movq	%rax, %rcx
	call	_ZSt3maxIxERKT_S2_S2_
	movq	%rbx, %rdx
	movq	%r14, %rcx
	movq	(%rax), %rsi
	call	_ZNSt6vectorIxSaIxEEixEm
	movq	%rbx, %rdx
	movq	%r12, %rcx
	movq	(%rax), %rdi
	call	_ZNSt6vectorIS_IxSaIxEESaIS1_EEixEm
	movl	$1, %edx
	movq	%rax, %rcx
	addq	%rdi, %rsi
	call	_ZNSt6vectorIxSaIxEEixEm
	movq	%r13, %rdx
	movq	%r12, %rcx
	movq	%rsi, (%rax)
	call	_ZNSt6vectorIS_IxSaIxEESaIS1_EEixEm
	movl	$1, %edx
	movq	%rax, %rcx
	call	_ZNSt6vectorIxSaIxEEixEm
	movq	%r13, %rdx
	movq	%r12, %rcx
	movq	%rax, %rsi
	call	_ZNSt6vectorIS_IxSaIxEESaIS1_EEixEm
	xorl	%edx, %edx
	movq	%rax, %rcx
	call	_ZNSt6vectorIxSaIxEEixEm
	movq	%rsi, %rdx
	movq	%rax, %rcx
	call	_ZSt3maxIxERKT_S2_S2_
	movq	%rbx, %rdx
	movq	%r15, %rcx
	movq	(%rax), %rsi
	call	_ZNSt6vectorIxSaIxEEixEm
	movq	%rbx, %rdx
	movq	%r12, %rcx
	addq	$1, %rbx
	movq	(%rax), %rdi
	call	_ZNSt6vectorIS_IxSaIxEESaIS1_EEixEm
	movl	$2, %edx
	movq	%rax, %rcx
	addq	%rdi, %rsi
	call	_ZNSt6vectorIxSaIxEEixEm
	movq	%rsi, (%rax)
	movq	80(%rsp), %rdx
	cmpq	%rbx, %rdx
	jg	.L13
.L12:
	subq	$1, %rdx
	movq	%r12, %rcx
	call	_ZNSt6vectorIS_IxSaIxEESaIS1_EEixEm
	movl	$2, %edx
	movq	%rax, %rcx
	call	_ZNSt6vectorIxSaIxEEixEm
	movq	%r12, %rcx
	movq	%rax, %rbx
	movq	80(%rsp), %rax
	leaq	-1(%rax), %rdx
	call	_ZNSt6vectorIS_IxSaIxEESaIS1_EEixEm
	movl	$1, %edx
	movq	%rax, %rcx
	call	_ZNSt6vectorIxSaIxEEixEm
	movq	%r12, %rcx
	movq	%rax, %rsi
	movq	80(%rsp), %rax
	leaq	-1(%rax), %rdx
	call	_ZNSt6vectorIS_IxSaIxEESaIS1_EEixEm
	xorl	%edx, %edx
	movq	%rax, %rcx
	call	_ZNSt6vectorIxSaIxEEixEm
	movq	%rsi, %rdx
	movq	%rax, %rcx
	call	_ZSt3maxIxERKT_S2_S2_
	movq	%rbx, %rdx
	movq	%rax, %rcx
	call	_ZSt3maxIxERKT_S2_S2_
	movq	.refptr._ZSt4cout(%rip), %rcx
	movq	(%rax), %rdx
	call	_ZNSolsEx
	movq	%rax, %rcx
	leaq	.LC0(%rip), %rdx
	call	_ZStlsISt11char_traitsIcEERSt13basic_ostreamIcT_ES5_PKc
.LEHE7:
	movq	%r12, %rcx
	call	_ZNSt6vectorIS_IxSaIxEESaIS1_EED1Ev
	movq	%r15, %rcx
	call	_ZNSt6vectorIxSaIxEED1Ev
	movq	%r14, %rcx
	call	_ZNSt6vectorIxSaIxEED1Ev
	movq	40(%rsp), %rcx
	call	_ZNSt6vectorIxSaIxEED1Ev
	xorl	%eax, %eax
	addq	$256, %rsp
	popq	%rbx
	popq	%rsi
	popq	%rdi
	popq	%r12
	popq	%r13
	popq	%r14
	popq	%r15
	ret
.L23:
	movq	%rax, %r12
	movq	%rsi, %rcx
	call	_ZNSaIxED1Ev
	movq	%r12, %rcx
.LEHB8:
	call	_Unwind_Resume
.L29:
	movq	%r12, %rcx
	movq	%rax, %rbx
	call	_ZNSt6vectorIS_IxSaIxEESaIS1_EED1Ev
.L21:
	movq	%r15, %rcx
	call	_ZNSt6vectorIxSaIxEED1Ev
.L18:
	movq	%r14, %rcx
	movq	%rbx, %r12
	call	_ZNSt6vectorIxSaIxEED1Ev
.L16:
	movq	40(%rsp), %rcx
	call	_ZNSt6vectorIxSaIxEED1Ev
	movq	%r12, %rcx
	call	_Unwind_Resume
.LEHE8:
.L28:
	movq	%rsi, %rcx
	movq	%rax, %r12
	call	_ZNSt6vectorIxSaIxEED1Ev
.L20:
	movq	%rdi, %rcx
	call	_ZNSaIxED1Ev
	movq	%rbx, %rcx
	movq	%r12, %rbx
	call	_ZNSaISt6vectorIxSaIxEEED1Ev
	jmp	.L21
.L27:
	movq	%rax, %r12
	jmp	.L20
.L26:
	movq	%rax, %rbx
	jmp	.L21
.L25:
	movq	%rsi, %rcx
	movq	%rax, %rbx
	call	_ZNSaIxED1Ev
	jmp	.L18
.L24:
	movq	%rsi, %rcx
	movq	%rax, %r12
	call	_ZNSaIxED1Ev
	jmp	.L16
	.def	__gxx_personality_seh0;	.scl	2;	.type	32;	.endef
	.seh_handler	__gxx_personality_seh0, @unwind, @except
	.seh_handlerdata
.LLSDA8373:
	.byte	0xff
	.byte	0xff
	.byte	0x1
	.uleb128 .LLSDACSE8373-.LLSDACSB8373
.LLSDACSB8373:
	.uleb128 .LEHB0-.LFB8373
	.uleb128 .LEHE0-.LEHB0
	.uleb128 0
	.uleb128 0
	.uleb128 .LEHB1-.LFB8373
	.uleb128 .LEHE1-.LEHB1
	.uleb128 .L23-.LFB8373
	.uleb128 0
	.uleb128 .LEHB2-.LFB8373
	.uleb128 .LEHE2-.LEHB2
	.uleb128 .L24-.LFB8373
	.uleb128 0
	.uleb128 .LEHB3-.LFB8373
	.uleb128 .LEHE3-.LEHB3
	.uleb128 .L25-.LFB8373
	.uleb128 0
	.uleb128 .LEHB4-.LFB8373
	.uleb128 .LEHE4-.LEHB4
	.uleb128 .L26-.LFB8373
	.uleb128 0
	.uleb128 .LEHB5-.LFB8373
	.uleb128 .LEHE5-.LEHB5
	.uleb128 .L27-.LFB8373
	.uleb128 0
	.uleb128 .LEHB6-.LFB8373
	.uleb128 .LEHE6-.LEHB6
	.uleb128 .L28-.LFB8373
	.uleb128 0
	.uleb128 .LEHB7-.LFB8373
	.uleb128 .LEHE7-.LEHB7
	.uleb128 .L29-.LFB8373
	.uleb128 0
	.uleb128 .LEHB8-.LFB8373
	.uleb128 .LEHE8-.LEHB8
	.uleb128 0
	.uleb128 0
.LLSDACSE8373:
	.section	.text.startup,"x"
	.seh_endproc
	.section	.text$_ZNSaIxEC1Ev,"x"
	.linkonce discard
	.align 2
	.p2align 4
	.globl	_ZNSaIxEC1Ev
	.def	_ZNSaIxEC1Ev;	.scl	2;	.type	32;	.endef
	.seh_proc	_ZNSaIxEC1Ev
_ZNSaIxEC1Ev:
.LFB8953:
	pushq	%rbp
	.seh_pushreg	%rbp
	movq	%rsp, %rbp
	.seh_setframe	%rbp, 0
	subq	$32, %rsp
	.seh_stackalloc	32
	.seh_endprologue
	movq	%rcx, 16(%rbp)
	movq	16(%rbp), %rcx
	call	_ZN9__gnu_cxx13new_allocatorIxEC2Ev
	nop
	addq	$32, %rsp
	popq	%rbp
	ret
	.seh_endproc
	.section	.text$_ZNSaIxED2Ev,"x"
	.linkonce discard
	.align 2
	.p2align 4
	.globl	_ZNSaIxED2Ev
	.def	_ZNSaIxED2Ev;	.scl	2;	.type	32;	.endef
	.seh_proc	_ZNSaIxED2Ev
_ZNSaIxED2Ev:
.LFB8955:
	pushq	%rbp
	.seh_pushreg	%rbp
	movq	%rsp, %rbp
	.seh_setframe	%rbp, 0
	subq	$32, %rsp
	.seh_stackalloc	32
	.seh_endprologue
	movq	%rcx, 16(%rbp)
	movq	16(%rbp), %rcx
	call	_ZN9__gnu_cxx13new_allocatorIxED2Ev
	nop
	addq	$32, %rsp
	popq	%rbp
	ret
	.seh_endproc
	.section	.text$_ZNSaIxED1Ev,"x"
	.linkonce discard
	.align 2
	.p2align 4
	.globl	_ZNSaIxED1Ev
	.def	_ZNSaIxED1Ev;	.scl	2;	.type	32;	.endef
	.seh_proc	_ZNSaIxED1Ev
_ZNSaIxED1Ev:
.LFB8956:
	pushq	%rbp
	.seh_pushreg	%rbp
	movq	%rsp, %rbp
	.seh_setframe	%rbp, 0
	subq	$32, %rsp
	.seh_stackalloc	32
	.seh_endprologue
	movq	%rcx, 16(%rbp)
	movq	16(%rbp), %rcx
	call	_ZN9__gnu_cxx13new_allocatorIxED2Ev
	nop
	addq	$32, %rsp
	popq	%rbp
	ret
	.seh_endproc
	.section	.text$_ZNSt6vectorIxSaIxEEC1EmRKS0_,"x"
	.linkonce discard
	.align 2
	.p2align 4
	.globl	_ZNSt6vectorIxSaIxEEC1EmRKS0_
	.def	_ZNSt6vectorIxSaIxEEC1EmRKS0_;	.scl	2;	.type	32;	.endef
	.seh_proc	_ZNSt6vectorIxSaIxEEC1EmRKS0_
_ZNSt6vectorIxSaIxEEC1EmRKS0_:
.LFB8959:
	pushq	%rbp
	.seh_pushreg	%rbp
	pushq	%rbx
	.seh_pushreg	%rbx
	subq	$40, %rsp
	.seh_stackalloc	40
	leaq	128(%rsp), %rbp
	.seh_setframe	%rbp, 128
	.seh_endprologue
	movq	%rcx, -64(%rbp)
	movq	%rdx, -56(%rbp)
	movq	%r8, -48(%rbp)
	movq	-64(%rbp), %rbx
	movq	-48(%rbp), %rdx
	movq	-56(%rbp), %rax
	movq	%rax, %rcx
.LEHB9:
	call	_ZNSt6vectorIxSaIxEE17_S_check_init_lenEmRKS0_
	movq	-48(%rbp), %rdx
	movq	%rdx, %r8
	movq	%rax, %rdx
	movq	%rbx, %rcx
	call	_ZNSt12_Vector_baseIxSaIxEEC2EmRKS0_
.LEHE9:
	movq	-56(%rbp), %rax
	movq	%rax, %rdx
	movq	-64(%rbp), %rcx
.LEHB10:
	call	_ZNSt6vectorIxSaIxEE21_M_default_initializeEm
.LEHE10:
	jmp	.L41
.L40:
	movq	%rax, %rbx
	movq	-64(%rbp), %rax
	movq	%rax, %rcx
	call	_ZNSt12_Vector_baseIxSaIxEED2Ev
	movq	%rbx, %rax
	movq	%rax, %rcx
.LEHB11:
	call	_Unwind_Resume
	nop
.LEHE11:
.L41:
	addq	$40, %rsp
	popq	%rbx
	popq	%rbp
	ret
	.seh_handler	__gxx_personality_seh0, @unwind, @except
	.seh_handlerdata
.LLSDA8959:
	.byte	0xff
	.byte	0xff
	.byte	0x1
	.uleb128 .LLSDACSE8959-.LLSDACSB8959
.LLSDACSB8959:
	.uleb128 .LEHB9-.LFB8959
	.uleb128 .LEHE9-.LEHB9
	.uleb128 0
	.uleb128 0
	.uleb128 .LEHB10-.LFB8959
	.uleb128 .LEHE10-.LEHB10
	.uleb128 .L40-.LFB8959
	.uleb128 0
	.uleb128 .LEHB11-.LFB8959
	.uleb128 .LEHE11-.LEHB11
	.uleb128 0
	.uleb128 0
.LLSDACSE8959:
	.section	.text$_ZNSt6vectorIxSaIxEEC1EmRKS0_,"x"
	.linkonce discard
	.seh_endproc
	.section	.text$_ZNSt6vectorIxSaIxEED1Ev,"x"
	.linkonce discard
	.align 2
	.p2align 4
	.globl	_ZNSt6vectorIxSaIxEED1Ev
	.def	_ZNSt6vectorIxSaIxEED1Ev;	.scl	2;	.type	32;	.endef
	.seh_proc	_ZNSt6vectorIxSaIxEED1Ev
_ZNSt6vectorIxSaIxEED1Ev:
.LFB8962:
	pushq	%rbp
	.seh_pushreg	%rbp
	movq	%rsp, %rbp
	.seh_setframe	%rbp, 0
	subq	$32, %rsp
	.seh_stackalloc	32
	.seh_endprologue
	movq	%rcx, 16(%rbp)
	movq	16(%rbp), %rax
	movq	%rax, %rcx
	call	_ZNSt12_Vector_baseIxSaIxEE19_M_get_Tp_allocatorEv
	movq	%rax, %rcx
	movq	16(%rbp), %rax
	movq	8(%rax), %rdx
	movq	16(%rbp), %rax
	movq	(%rax), %rax
	movq	%rcx, %r8
	movq	%rax, %rcx
	call	_ZSt8_DestroyIPxxEvT_S1_RSaIT0_E
	movq	16(%rbp), %rax
	movq	%rax, %rcx
	call	_ZNSt12_Vector_baseIxSaIxEED2Ev
	nop
	addq	$32, %rsp
	popq	%rbp
	ret
	.seh_handler	__gxx_personality_seh0, @unwind, @except
	.seh_handlerdata
.LLSDA8962:
	.byte	0xff
	.byte	0xff
	.byte	0x1
	.uleb128 .LLSDACSE8962-.LLSDACSB8962
.LLSDACSB8962:
.LLSDACSE8962:
	.section	.text$_ZNSt6vectorIxSaIxEED1Ev,"x"
	.linkonce discard
	.seh_endproc
	.section	.text$_ZNSt6vectorIxSaIxEEixEm,"x"
	.linkonce discard
	.align 2
	.p2align 4
	.globl	_ZNSt6vectorIxSaIxEEixEm
	.def	_ZNSt6vectorIxSaIxEEixEm;	.scl	2;	.type	32;	.endef
	.seh_proc	_ZNSt6vectorIxSaIxEEixEm
_ZNSt6vectorIxSaIxEEixEm:
.LFB8963:
	pushq	%rbp
	.seh_pushreg	%rbp
	movq	%rsp, %rbp
	.seh_setframe	%rbp, 0
	.seh_endprologue
	movq	%rcx, 16(%rbp)
	movq	%rdx, 24(%rbp)
	movq	16(%rbp), %rax
	movq	(%rax), %rdx
	movq	24(%rbp), %rax
	salq	$3, %rax
	addq	%rdx, %rax
	popq	%rbp
	ret
	.seh_endproc
	.section	.text$_ZNSt6vectorIxSaIxEEC1EmRKxRKS0_,"x"
	.linkonce discard
	.align 2
	.p2align 4
	.globl	_ZNSt6vectorIxSaIxEEC1EmRKxRKS0_
	.def	_ZNSt6vectorIxSaIxEEC1EmRKxRKS0_;	.scl	2;	.type	32;	.endef
	.seh_proc	_ZNSt6vectorIxSaIxEEC1EmRKxRKS0_
_ZNSt6vectorIxSaIxEEC1EmRKxRKS0_:
.LFB8966:
	pushq	%rbp
	.seh_pushreg	%rbp
	pushq	%rbx
	.seh_pushreg	%rbx
	subq	$40, %rsp
	.seh_stackalloc	40
	leaq	128(%rsp), %rbp
	.seh_setframe	%rbp, 128
	.seh_endprologue
	movq	%rcx, -64(%rbp)
	movq	%rdx, -56(%rbp)
	movq	%r8, -48(%rbp)
	movq	%r9, -40(%rbp)
	movq	-64(%rbp), %rbx
	movq	-40(%rbp), %rdx
	movq	-56(%rbp), %rax
	movq	%rax, %rcx
.LEHB12:
	call	_ZNSt6vectorIxSaIxEE17_S_check_init_lenEmRKS0_
	movq	-40(%rbp), %rdx
	movq	%rdx, %r8
	movq	%rax, %rdx
	movq	%rbx, %rcx
	call	_ZNSt12_Vector_baseIxSaIxEEC2EmRKS0_
.LEHE12:
	movq	-48(%rbp), %rdx
	movq	-56(%rbp), %rax
	movq	%rdx, %r8
	movq	%rax, %rdx
	movq	-64(%rbp), %rcx
.LEHB13:
	call	_ZNSt6vectorIxSaIxEE18_M_fill_initializeEmRKx
.LEHE13:
	jmp	.L48
.L47:
	movq	%rax, %rbx
	movq	-64(%rbp), %rax
	movq	%rax, %rcx
	call	_ZNSt12_Vector_baseIxSaIxEED2Ev
	movq	%rbx, %rax
	movq	%rax, %rcx
.LEHB14:
	call	_Unwind_Resume
	nop
.LEHE14:
.L48:
	addq	$40, %rsp
	popq	%rbx
	popq	%rbp
	ret
	.seh_handler	__gxx_personality_seh0, @unwind, @except
	.seh_handlerdata
.LLSDA8966:
	.byte	0xff
	.byte	0xff
	.byte	0x1
	.uleb128 .LLSDACSE8966-.LLSDACSB8966
.LLSDACSB8966:
	.uleb128 .LEHB12-.LFB8966
	.uleb128 .LEHE12-.LEHB12
	.uleb128 0
	.uleb128 0
	.uleb128 .LEHB13-.LFB8966
	.uleb128 .LEHE13-.LEHB13
	.uleb128 .L47-.LFB8966
	.uleb128 0
	.uleb128 .LEHB14-.LFB8966
	.uleb128 .LEHE14-.LEHB14
	.uleb128 0
	.uleb128 0
.LLSDACSE8966:
	.section	.text$_ZNSt6vectorIxSaIxEEC1EmRKxRKS0_,"x"
	.linkonce discard
	.seh_endproc
	.section	.text$_ZNSaISt6vectorIxSaIxEEEC1Ev,"x"
	.linkonce discard
	.align 2
	.p2align 4
	.globl	_ZNSaISt6vectorIxSaIxEEEC1Ev
	.def	_ZNSaISt6vectorIxSaIxEEEC1Ev;	.scl	2;	.type	32;	.endef
	.seh_proc	_ZNSaISt6vectorIxSaIxEEEC1Ev
_ZNSaISt6vectorIxSaIxEEEC1Ev:
.LFB8969:
	pushq	%rbp
	.seh_pushreg	%rbp
	movq	%rsp, %rbp
	.seh_setframe	%rbp, 0
	subq	$32, %rsp
	.seh_stackalloc	32
	.seh_endprologue
	movq	%rcx, 16(%rbp)
	movq	16(%rbp), %rcx
	call	_ZN9__gnu_cxx13new_allocatorISt6vectorIxSaIxEEEC2Ev
	nop
	addq	$32, %rsp
	popq	%rbp
	ret
	.seh_endproc
	.section	.text$_ZNSaISt6vectorIxSaIxEEED2Ev,"x"
	.linkonce discard
	.align 2
	.p2align 4
	.globl	_ZNSaISt6vectorIxSaIxEEED2Ev
	.def	_ZNSaISt6vectorIxSaIxEEED2Ev;	.scl	2;	.type	32;	.endef
	.seh_proc	_ZNSaISt6vectorIxSaIxEEED2Ev
_ZNSaISt6vectorIxSaIxEEED2Ev:
.LFB8971:
	pushq	%rbp
	.seh_pushreg	%rbp
	movq	%rsp, %rbp
	.seh_setframe	%rbp, 0
	subq	$32, %rsp
	.seh_stackalloc	32
	.seh_endprologue
	movq	%rcx, 16(%rbp)
	movq	16(%rbp), %rcx
	call	_ZN9__gnu_cxx13new_allocatorISt6vectorIxSaIxEEED2Ev
	nop
	addq	$32, %rsp
	popq	%rbp
	ret
	.seh_endproc
	.section	.text$_ZNSaISt6vectorIxSaIxEEED1Ev,"x"
	.linkonce discard
	.align 2
	.p2align 4
	.globl	_ZNSaISt6vectorIxSaIxEEED1Ev
	.def	_ZNSaISt6vectorIxSaIxEEED1Ev;	.scl	2;	.type	32;	.endef
	.seh_proc	_ZNSaISt6vectorIxSaIxEEED1Ev
_ZNSaISt6vectorIxSaIxEEED1Ev:
.LFB8972:
	pushq	%rbp
	.seh_pushreg	%rbp
	movq	%rsp, %rbp
	.seh_setframe	%rbp, 0
	subq	$32, %rsp
	.seh_stackalloc	32
	.seh_endprologue
	movq	%rcx, 16(%rbp)
	movq	16(%rbp), %rcx
	call	_ZN9__gnu_cxx13new_allocatorISt6vectorIxSaIxEEED2Ev
	nop
	addq	$32, %rsp
	popq	%rbp
	ret
	.seh_endproc
	.section	.text$_ZNSt6vectorIS_IxSaIxEESaIS1_EEC1EmRKS1_RKS2_,"x"
	.linkonce discard
	.align 2
	.p2align 4
	.globl	_ZNSt6vectorIS_IxSaIxEESaIS1_EEC1EmRKS1_RKS2_
	.def	_ZNSt6vectorIS_IxSaIxEESaIS1_EEC1EmRKS1_RKS2_;	.scl	2;	.type	32;	.endef
	.seh_proc	_ZNSt6vectorIS_IxSaIxEESaIS1_EEC1EmRKS1_RKS2_
_ZNSt6vectorIS_IxSaIxEESaIS1_EEC1EmRKS1_RKS2_:
.LFB8975:
	pushq	%rbp
	.seh_pushreg	%rbp
	pushq	%rbx
	.seh_pushreg	%rbx
	subq	$40, %rsp
	.seh_stackalloc	40
	leaq	128(%rsp), %rbp
	.seh_setframe	%rbp, 128
	.seh_endprologue
	movq	%rcx, -64(%rbp)
	movq	%rdx, -56(%rbp)
	movq	%r8, -48(%rbp)
	movq	%r9, -40(%rbp)
	movq	-64(%rbp), %rbx
	movq	-40(%rbp), %rdx
	movq	-56(%rbp), %rax
	movq	%rax, %rcx
.LEHB15:
	call	_ZNSt6vectorIS_IxSaIxEESaIS1_EE17_S_check_init_lenEmRKS2_
	movq	-40(%rbp), %rdx
	movq	%rdx, %r8
	movq	%rax, %rdx
	movq	%rbx, %rcx
	call	_ZNSt12_Vector_baseISt6vectorIxSaIxEESaIS2_EEC2EmRKS3_
.LEHE15:
	movq	-48(%rbp), %rdx
	movq	-56(%rbp), %rax
	movq	%rdx, %r8
	movq	%rax, %rdx
	movq	-64(%rbp), %rcx
.LEHB16:
	call	_ZNSt6vectorIS_IxSaIxEESaIS1_EE18_M_fill_initializeEmRKS1_
.LEHE16:
	jmp	.L55
.L54:
	movq	%rax, %rbx
	movq	-64(%rbp), %rax
	movq	%rax, %rcx
	call	_ZNSt12_Vector_baseISt6vectorIxSaIxEESaIS2_EED2Ev
	movq	%rbx, %rax
	movq	%rax, %rcx
.LEHB17:
	call	_Unwind_Resume
	nop
.LEHE17:
.L55:
	addq	$40, %rsp
	popq	%rbx
	popq	%rbp
	ret
	.seh_handler	__gxx_personality_seh0, @unwind, @except
	.seh_handlerdata
.LLSDA8975:
	.byte	0xff
	.byte	0xff
	.byte	0x1
	.uleb128 .LLSDACSE8975-.LLSDACSB8975
.LLSDACSB8975:
	.uleb128 .LEHB15-.LFB8975
	.uleb128 .LEHE15-.LEHB15
	.uleb128 0
	.uleb128 0
	.uleb128 .LEHB16-.LFB8975
	.uleb128 .LEHE16-.LEHB16
	.uleb128 .L54-.LFB8975
	.uleb128 0
	.uleb128 .LEHB17-.LFB8975
	.uleb128 .LEHE17-.LEHB17
	.uleb128 0
	.uleb128 0
.LLSDACSE8975:
	.section	.text$_ZNSt6vectorIS_IxSaIxEESaIS1_EEC1EmRKS1_RKS2_,"x"
	.linkonce discard
	.seh_endproc
	.section	.text$_ZNSt6vectorIS_IxSaIxEESaIS1_EED1Ev,"x"
	.linkonce discard
	.align 2
	.p2align 4
	.globl	_ZNSt6vectorIS_IxSaIxEESaIS1_EED1Ev
	.def	_ZNSt6vectorIS_IxSaIxEESaIS1_EED1Ev;	.scl	2;	.type	32;	.endef
	.seh_proc	_ZNSt6vectorIS_IxSaIxEESaIS1_EED1Ev
_ZNSt6vectorIS_IxSaIxEESaIS1_EED1Ev:
.LFB8978:
	pushq	%rbp
	.seh_pushreg	%rbp
	movq	%rsp, %rbp
	.seh_setframe	%rbp, 0
	subq	$32, %rsp
	.seh_stackalloc	32
	.seh_endprologue
	movq	%rcx, 16(%rbp)
	movq	16(%rbp), %rax
	movq	%rax, %rcx
	call	_ZNSt12_Vector_baseISt6vectorIxSaIxEESaIS2_EE19_M_get_Tp_allocatorEv
	movq	%rax, %rcx
	movq	16(%rbp), %rax
	movq	8(%rax), %rdx
	movq	16(%rbp), %rax
	movq	(%rax), %rax
	movq	%rcx, %r8
	movq	%rax, %rcx
	call	_ZSt8_DestroyIPSt6vectorIxSaIxEES2_EvT_S4_RSaIT0_E
	movq	16(%rbp), %rax
	movq	%rax, %rcx
	call	_ZNSt12_Vector_baseISt6vectorIxSaIxEESaIS2_EED2Ev
	nop
	addq	$32, %rsp
	popq	%rbp
	ret
	.seh_handler	__gxx_personality_seh0, @unwind, @except
	.seh_handlerdata
.LLSDA8978:
	.byte	0xff
	.byte	0xff
	.byte	0x1
	.uleb128 .LLSDACSE8978-.LLSDACSB8978
.LLSDACSB8978:
.LLSDACSE8978:
	.section	.text$_ZNSt6vectorIS_IxSaIxEESaIS1_EED1Ev,"x"
	.linkonce discard
	.seh_endproc
	.section	.text$_ZNSt6vectorIS_IxSaIxEESaIS1_EEixEm,"x"
	.linkonce discard
	.align 2
	.p2align 4
	.globl	_ZNSt6vectorIS_IxSaIxEESaIS1_EEixEm
	.def	_ZNSt6vectorIS_IxSaIxEESaIS1_EEixEm;	.scl	2;	.type	32;	.endef
	.seh_proc	_ZNSt6vectorIS_IxSaIxEESaIS1_EEixEm
_ZNSt6vectorIS_IxSaIxEESaIS1_EEixEm:
.LFB8979:
	pushq	%rbp
	.seh_pushreg	%rbp
	movq	%rsp, %rbp
	.seh_setframe	%rbp, 0
	.seh_endprologue
	movq	%rcx, 16(%rbp)
	movq	%rdx, 24(%rbp)
	movq	16(%rbp), %rax
	movq	(%rax), %rcx
	movq	24(%rbp), %rdx
	movq	%rdx, %rax
	addq	%rax, %rax
	addq	%rdx, %rax
	salq	$3, %rax
	addq	%rcx, %rax
	popq	%rbp
	ret
	.seh_endproc
	.section	.text$_ZNSt6vectorIxSaIxEEaSESt16initializer_listIxE,"x"
	.linkonce discard
	.align 2
	.p2align 4
	.globl	_ZNSt6vectorIxSaIxEEaSESt16initializer_listIxE
	.def	_ZNSt6vectorIxSaIxEEaSESt16initializer_listIxE;	.scl	2;	.type	32;	.endef
	.seh_proc	_ZNSt6vectorIxSaIxEEaSESt16initializer_listIxE
_ZNSt6vectorIxSaIxEEaSESt16initializer_listIxE:
.LFB8980:
	pushq	%rbp
	.seh_pushreg	%rbp
	pushq	%rsi
	.seh_pushreg	%rsi
	pushq	%rbx
	.seh_pushreg	%rbx
	movq	%rsp, %rbp
	.seh_setframe	%rbp, 0
	subq	$64, %rsp
	.seh_stackalloc	64
	.seh_endprologue
	movq	%rcx, 32(%rbp)
	movq	%rdx, %rbx
	movq	(%rbx), %rax
	movq	8(%rbx), %rdx
	movq	%rax, -32(%rbp)
	movq	%rdx, -24(%rbp)
	leaq	-32(%rbp), %rax
	movq	%rax, %rcx
	call	_ZNKSt16initializer_listIxE3endEv
	movq	%rax, %rbx
	leaq	-32(%rbp), %rax
	movq	%rax, %rcx
	call	_ZNKSt16initializer_listIxE5beginEv
	movl	%esi, %r9d
	movq	%rbx, %r8
	movq	%rax, %rdx
	movq	32(%rbp), %rcx
	call	_ZNSt6vectorIxSaIxEE13_M_assign_auxIPKxEEvT_S5_St20forward_iterator_tag
	movq	32(%rbp), %rax
	addq	$64, %rsp
	popq	%rbx
	popq	%rsi
	popq	%rbp
	ret
	.seh_endproc
	.section	.text$_ZSt3maxIxERKT_S2_S2_,"x"
	.linkonce discard
	.p2align 4
	.globl	_ZSt3maxIxERKT_S2_S2_
	.def	_ZSt3maxIxERKT_S2_S2_;	.scl	2;	.type	32;	.endef
	.seh_proc	_ZSt3maxIxERKT_S2_S2_
_ZSt3maxIxERKT_S2_S2_:
.LFB8981:
	pushq	%rbp
	.seh_pushreg	%rbp
	movq	%rsp, %rbp
	.seh_setframe	%rbp, 0
	.seh_endprologue
	movq	%rcx, 16(%rbp)
	movq	%rdx, 24(%rbp)
	movq	16(%rbp), %rax
	movq	(%rax), %rdx
	movq	24(%rbp), %rax
	movq	(%rax), %rax
	cmpq	%rax, %rdx
	jge	.L62
	movq	24(%rbp), %rax
	jmp	.L63
.L62:
	movq	16(%rbp), %rax
.L63:
	popq	%rbp
	ret
	.seh_endproc
	.section	.text$_ZN9__gnu_cxx13new_allocatorIxEC2Ev,"x"
	.linkonce discard
	.align 2
	.p2align 4
	.globl	_ZN9__gnu_cxx13new_allocatorIxEC2Ev
	.def	_ZN9__gnu_cxx13new_allocatorIxEC2Ev;	.scl	2;	.type	32;	.endef
	.seh_proc	_ZN9__gnu_cxx13new_allocatorIxEC2Ev
_ZN9__gnu_cxx13new_allocatorIxEC2Ev:
.LFB9235:
	pushq	%rbp
	.seh_pushreg	%rbp
	movq	%rsp, %rbp
	.seh_setframe	%rbp, 0
	.seh_endprologue
	movq	%rcx, 16(%rbp)
	nop
	popq	%rbp
	ret
	.seh_endproc
	.section	.text$_ZN9__gnu_cxx13new_allocatorIxED2Ev,"x"
	.linkonce discard
	.align 2
	.p2align 4
	.globl	_ZN9__gnu_cxx13new_allocatorIxED2Ev
	.def	_ZN9__gnu_cxx13new_allocatorIxED2Ev;	.scl	2;	.type	32;	.endef
	.seh_proc	_ZN9__gnu_cxx13new_allocatorIxED2Ev
_ZN9__gnu_cxx13new_allocatorIxED2Ev:
.LFB9238:
	pushq	%rbp
	.seh_pushreg	%rbp
	movq	%rsp, %rbp
	.seh_setframe	%rbp, 0
	.seh_endprologue
	movq	%rcx, 16(%rbp)
	nop
	popq	%rbp
	ret
	.seh_endproc
	.section .rdata,"dr"
	.align 8
.LC1:
	.ascii "cannot create std::vector larger than max_size()\0"
	.section	.text$_ZNSt6vectorIxSaIxEE17_S_check_init_lenEmRKS0_,"x"
	.linkonce discard
	.p2align 4
	.globl	_ZNSt6vectorIxSaIxEE17_S_check_init_lenEmRKS0_
	.def	_ZNSt6vectorIxSaIxEE17_S_check_init_lenEmRKS0_;	.scl	2;	.type	32;	.endef
	.seh_proc	_ZNSt6vectorIxSaIxEE17_S_check_init_lenEmRKS0_
_ZNSt6vectorIxSaIxEE17_S_check_init_lenEmRKS0_:
.LFB9240:
	pushq	%rbp
	.seh_pushreg	%rbp
	pushq	%rbx
	.seh_pushreg	%rbx
	subq	$56, %rsp
	.seh_stackalloc	56
	leaq	128(%rsp), %rbp
	.seh_setframe	%rbp, 128
	.seh_endprologue
	movq	%rcx, -48(%rbp)
	movq	%rdx, -40(%rbp)
	movq	-40(%rbp), %rdx
	leaq	-81(%rbp), %rax
	movq	%rax, %rcx
	call	_ZNSaIxEC1ERKS_
	leaq	-81(%rbp), %rax
	movq	%rax, %rcx
	call	_ZNSt6vectorIxSaIxEE11_S_max_sizeERKS0_
	cmpq	%rax, -48(%rbp)
	seta	%bl
	leaq	-81(%rbp), %rax
	movq	%rax, %rcx
	call	_ZNSaIxED1Ev
	testb	%bl, %bl
	je	.L67
	leaq	.LC1(%rip), %rcx
	call	_ZSt20__throw_length_errorPKc
.L67:
	movq	-48(%rbp), %rax
	addq	$56, %rsp
	popq	%rbx
	popq	%rbp
	ret
	.seh_endproc
	.section	.text$_ZNSt12_Vector_baseIxSaIxEE12_Vector_implD1Ev,"x"
	.linkonce discard
	.align 2
	.p2align 4
	.globl	_ZNSt12_Vector_baseIxSaIxEE12_Vector_implD1Ev
	.def	_ZNSt12_Vector_baseIxSaIxEE12_Vector_implD1Ev;	.scl	2;	.type	32;	.endef
	.seh_proc	_ZNSt12_Vector_baseIxSaIxEE12_Vector_implD1Ev
_ZNSt12_Vector_baseIxSaIxEE12_Vector_implD1Ev:
.LFB9244:
	pushq	%rbp
	.seh_pushreg	%rbp
	movq	%rsp, %rbp
	.seh_setframe	%rbp, 0
	subq	$32, %rsp
	.seh_stackalloc	32
	.seh_endprologue
	movq	%rcx, 16(%rbp)
	movq	16(%rbp), %rcx
	call	_ZNSaIxED2Ev
	nop
	addq	$32, %rsp
	popq	%rbp
	ret
	.seh_endproc
	.section	.text$_ZNSt12_Vector_baseIxSaIxEEC2EmRKS0_,"x"
	.linkonce discard
	.align 2
	.p2align 4
	.globl	_ZNSt12_Vector_baseIxSaIxEEC2EmRKS0_
	.def	_ZNSt12_Vector_baseIxSaIxEEC2EmRKS0_;	.scl	2;	.type	32;	.endef
	.seh_proc	_ZNSt12_Vector_baseIxSaIxEEC2EmRKS0_
_ZNSt12_Vector_baseIxSaIxEEC2EmRKS0_:
.LFB9245:
	pushq	%rbp
	.seh_pushreg	%rbp
	pushq	%rbx
	.seh_pushreg	%rbx
	subq	$40, %rsp
	.seh_stackalloc	40
	leaq	128(%rsp), %rbp
	.seh_setframe	%rbp, 128
	.seh_endprologue
	movq	%rcx, -64(%rbp)
	movq	%rdx, -56(%rbp)
	movq	%r8, -48(%rbp)
	movq	-64(%rbp), %rax
	movq	-48(%rbp), %rdx
	movq	%rax, %rcx
	call	_ZNSt12_Vector_baseIxSaIxEE12_Vector_implC1ERKS0_
	movq	-56(%rbp), %rax
	movq	%rax, %rdx
	movq	-64(%rbp), %rcx
.LEHB18:
	call	_ZNSt12_Vector_baseIxSaIxEE17_M_create_storageEm
.LEHE18:
	jmp	.L73
.L72:
	movq	%rax, %rbx
	movq	-64(%rbp), %rax
	movq	%rax, %rcx
	call	_ZNSt12_Vector_baseIxSaIxEE12_Vector_implD1Ev
	movq	%rbx, %rax
	movq	%rax, %rcx
.LEHB19:
	call	_Unwind_Resume
	nop
.LEHE19:
.L73:
	addq	$40, %rsp
	popq	%rbx
	popq	%rbp
	ret
	.seh_handler	__gxx_personality_seh0, @unwind, @except
	.seh_handlerdata
.LLSDA9245:
	.byte	0xff
	.byte	0xff
	.byte	0x1
	.uleb128 .LLSDACSE9245-.LLSDACSB9245
.LLSDACSB9245:
	.uleb128 .LEHB18-.LFB9245
	.uleb128 .LEHE18-.LEHB18
	.uleb128 .L72-.LFB9245
	.uleb128 0
	.uleb128 .LEHB19-.LFB9245
	.uleb128 .LEHE19-.LEHB19
	.uleb128 0
	.uleb128 0
.LLSDACSE9245:
	.section	.text$_ZNSt12_Vector_baseIxSaIxEEC2EmRKS0_,"x"
	.linkonce discard
	.seh_endproc
	.section	.text$_ZNSt12_Vector_baseIxSaIxEED2Ev,"x"
	.linkonce discard
	.align 2
	.p2align 4
	.globl	_ZNSt12_Vector_baseIxSaIxEED2Ev
	.def	_ZNSt12_Vector_baseIxSaIxEED2Ev;	.scl	2;	.type	32;	.endef
	.seh_proc	_ZNSt12_Vector_baseIxSaIxEED2Ev
_ZNSt12_Vector_baseIxSaIxEED2Ev:
.LFB9248:
	pushq	%rbp
	.seh_pushreg	%rbp
	movq	%rsp, %rbp
	.seh_setframe	%rbp, 0
	subq	$32, %rsp
	.seh_stackalloc	32
	.seh_endprologue
	movq	%rcx, 16(%rbp)
	movq	16(%rbp), %rax
	movq	16(%rax), %rdx
	movq	16(%rbp), %rax
	movq	(%rax), %rcx
	movq	%rdx, %rax
	subq	%rcx, %rax
	sarq	$3, %rax
	movq	%rax, %rdx
	movq	16(%rbp), %rax
	movq	(%rax), %rax
	movq	%rdx, %r8
	movq	%rax, %rdx
	movq	16(%rbp), %rcx
	call	_ZNSt12_Vector_baseIxSaIxEE13_M_deallocateEPxm
	movq	16(%rbp), %rax
	movq	%rax, %rcx
	call	_ZNSt12_Vector_baseIxSaIxEE12_Vector_implD1Ev
	nop
	addq	$32, %rsp
	popq	%rbp
	ret
	.seh_handler	__gxx_personality_seh0, @unwind, @except
	.seh_handlerdata
.LLSDA9248:
	.byte	0xff
	.byte	0xff
	.byte	0x1
	.uleb128 .LLSDACSE9248-.LLSDACSB9248
.LLSDACSB9248:
.LLSDACSE9248:
	.section	.text$_ZNSt12_Vector_baseIxSaIxEED2Ev,"x"
	.linkonce discard
	.seh_endproc
	.section	.text$_ZNSt6vectorIxSaIxEE21_M_default_initializeEm,"x"
	.linkonce discard
	.align 2
	.p2align 4
	.globl	_ZNSt6vectorIxSaIxEE21_M_default_initializeEm
	.def	_ZNSt6vectorIxSaIxEE21_M_default_initializeEm;	.scl	2;	.type	32;	.endef
	.seh_proc	_ZNSt6vectorIxSaIxEE21_M_default_initializeEm
_ZNSt6vectorIxSaIxEE21_M_default_initializeEm:
.LFB9250:
	pushq	%rbp
	.seh_pushreg	%rbp
	movq	%rsp, %rbp
	.seh_setframe	%rbp, 0
	subq	$32, %rsp
	.seh_stackalloc	32
	.seh_endprologue
	movq	%rcx, 16(%rbp)
	movq	%rdx, 24(%rbp)
	movq	16(%rbp), %rax
	movq	%rax, %rcx
	call	_ZNSt12_Vector_baseIxSaIxEE19_M_get_Tp_allocatorEv
	movq	%rax, %rcx
	movq	16(%rbp), %rax
	movq	(%rax), %rax
	movq	24(%rbp), %rdx
	movq	%rcx, %r8
	movq	%rax, %rcx
	call	_ZSt27__uninitialized_default_n_aIPxmxET_S1_T0_RSaIT1_E
	movq	16(%rbp), %rdx
	movq	%rax, 8(%rdx)
	nop
	addq	$32, %rsp
	popq	%rbp
	ret
	.seh_endproc
	.section	.text$_ZNSt12_Vector_baseIxSaIxEE19_M_get_Tp_allocatorEv,"x"
	.linkonce discard
	.align 2
	.p2align 4
	.globl	_ZNSt12_Vector_baseIxSaIxEE19_M_get_Tp_allocatorEv
	.def	_ZNSt12_Vector_baseIxSaIxEE19_M_get_Tp_allocatorEv;	.scl	2;	.type	32;	.endef
	.seh_proc	_ZNSt12_Vector_baseIxSaIxEE19_M_get_Tp_allocatorEv
_ZNSt12_Vector_baseIxSaIxEE19_M_get_Tp_allocatorEv:
.LFB9251:
	pushq	%rbp
	.seh_pushreg	%rbp
	movq	%rsp, %rbp
	.seh_setframe	%rbp, 0
	.seh_endprologue
	movq	%rcx, 16(%rbp)
	movq	16(%rbp), %rax
	popq	%rbp
	ret
	.seh_endproc
	.section	.text$_ZSt8_DestroyIPxxEvT_S1_RSaIT0_E,"x"
	.linkonce discard
	.p2align 4
	.globl	_ZSt8_DestroyIPxxEvT_S1_RSaIT0_E
	.def	_ZSt8_DestroyIPxxEvT_S1_RSaIT0_E;	.scl	2;	.type	32;	.endef
	.seh_proc	_ZSt8_DestroyIPxxEvT_S1_RSaIT0_E
_ZSt8_DestroyIPxxEvT_S1_RSaIT0_E:
.LFB9252:
	pushq	%rbp
	.seh_pushreg	%rbp
	movq	%rsp, %rbp
	.seh_setframe	%rbp, 0
	subq	$32, %rsp
	.seh_stackalloc	32
	.seh_endprologue
	movq	%rcx, 16(%rbp)
	movq	%rdx, 24(%rbp)
	movq	%r8, 32(%rbp)
	movq	24(%rbp), %rax
	movq	%rax, %rdx
	movq	16(%rbp), %rcx
	call	_ZSt8_DestroyIPxEvT_S1_
	nop
	addq	$32, %rsp
	popq	%rbp
	ret
	.seh_endproc
	.section	.text$_ZNSt6vectorIxSaIxEE18_M_fill_initializeEmRKx,"x"
	.linkonce discard
	.align 2
	.p2align 4
	.globl	_ZNSt6vectorIxSaIxEE18_M_fill_initializeEmRKx
	.def	_ZNSt6vectorIxSaIxEE18_M_fill_initializeEmRKx;	.scl	2;	.type	32;	.endef
	.seh_proc	_ZNSt6vectorIxSaIxEE18_M_fill_initializeEmRKx
_ZNSt6vectorIxSaIxEE18_M_fill_initializeEmRKx:
.LFB9253:
	pushq	%rbp
	.seh_pushreg	%rbp
	movq	%rsp, %rbp
	.seh_setframe	%rbp, 0
	subq	$32, %rsp
	.seh_stackalloc	32
	.seh_endprologue
	movq	%rcx, 16(%rbp)
	movq	%rdx, 24(%rbp)
	movq	%r8, 32(%rbp)
	movq	16(%rbp), %rax
	movq	%rax, %rcx
	call	_ZNSt12_Vector_baseIxSaIxEE19_M_get_Tp_allocatorEv
	movq	%rax, %rcx
	movq	16(%rbp), %rax
	movq	(%rax), %rax
	movq	32(%rbp), %r8
	movq	24(%rbp), %rdx
	movq	%rcx, %r9
	movq	%rax, %rcx
	call	_ZSt24__uninitialized_fill_n_aIPxmxxET_S1_T0_RKT1_RSaIT2_E
	movq	16(%rbp), %rdx
	movq	%rax, 8(%rdx)
	nop
	addq	$32, %rsp
	popq	%rbp
	ret
	.seh_endproc
	.section	.text$_ZN9__gnu_cxx13new_allocatorISt6vectorIxSaIxEEEC2Ev,"x"
	.linkonce discard
	.align 2
	.p2align 4
	.globl	_ZN9__gnu_cxx13new_allocatorISt6vectorIxSaIxEEEC2Ev
	.def	_ZN9__gnu_cxx13new_allocatorISt6vectorIxSaIxEEEC2Ev;	.scl	2;	.type	32;	.endef
	.seh_proc	_ZN9__gnu_cxx13new_allocatorISt6vectorIxSaIxEEEC2Ev
_ZN9__gnu_cxx13new_allocatorISt6vectorIxSaIxEEEC2Ev:
.LFB9255:
	pushq	%rbp
	.seh_pushreg	%rbp
	movq	%rsp, %rbp
	.seh_setframe	%rbp, 0
	.seh_endprologue
	movq	%rcx, 16(%rbp)
	nop
	popq	%rbp
	ret
	.seh_endproc
	.section	.text$_ZN9__gnu_cxx13new_allocatorISt6vectorIxSaIxEEED2Ev,"x"
	.linkonce discard
	.align 2
	.p2align 4
	.globl	_ZN9__gnu_cxx13new_allocatorISt6vectorIxSaIxEEED2Ev
	.def	_ZN9__gnu_cxx13new_allocatorISt6vectorIxSaIxEEED2Ev;	.scl	2;	.type	32;	.endef
	.seh_proc	_ZN9__gnu_cxx13new_allocatorISt6vectorIxSaIxEEED2Ev
_ZN9__gnu_cxx13new_allocatorISt6vectorIxSaIxEEED2Ev:
.LFB9258:
	pushq	%rbp
	.seh_pushreg	%rbp
	movq	%rsp, %rbp
	.seh_setframe	%rbp, 0
	.seh_endprologue
	movq	%rcx, 16(%rbp)
	nop
	popq	%rbp
	ret
	.seh_endproc
	.section	.text$_ZNSt6vectorIS_IxSaIxEESaIS1_EE17_S_check_init_lenEmRKS2_,"x"
	.linkonce discard
	.p2align 4
	.globl	_ZNSt6vectorIS_IxSaIxEESaIS1_EE17_S_check_init_lenEmRKS2_
	.def	_ZNSt6vectorIS_IxSaIxEESaIS1_EE17_S_check_init_lenEmRKS2_;	.scl	2;	.type	32;	.endef
	.seh_proc	_ZNSt6vectorIS_IxSaIxEESaIS1_EE17_S_check_init_lenEmRKS2_
_ZNSt6vectorIS_IxSaIxEESaIS1_EE17_S_check_init_lenEmRKS2_:
.LFB9260:
	pushq	%rbp
	.seh_pushreg	%rbp
	pushq	%rbx
	.seh_pushreg	%rbx
	subq	$56, %rsp
	.seh_stackalloc	56
	leaq	128(%rsp), %rbp
	.seh_setframe	%rbp, 128
	.seh_endprologue
	movq	%rcx, -48(%rbp)
	movq	%rdx, -40(%rbp)
	movq	-40(%rbp), %rdx
	leaq	-81(%rbp), %rax
	movq	%rax, %rcx
	call	_ZNSaISt6vectorIxSaIxEEEC1ERKS2_
	leaq	-81(%rbp), %rax
	movq	%rax, %rcx
	call	_ZNSt6vectorIS_IxSaIxEESaIS1_EE11_S_max_sizeERKS2_
	cmpq	%rax, -48(%rbp)
	seta	%bl
	leaq	-81(%rbp), %rax
	movq	%rax, %rcx
	call	_ZNSaISt6vectorIxSaIxEEED1Ev
	testb	%bl, %bl
	je	.L83
	leaq	.LC1(%rip), %rcx
	call	_ZSt20__throw_length_errorPKc
.L83:
	movq	-48(%rbp), %rax
	addq	$56, %rsp
	popq	%rbx
	popq	%rbp
	ret
	.seh_endproc
	.section	.text$_ZNSt12_Vector_baseISt6vectorIxSaIxEESaIS2_EE12_Vector_implD1Ev,"x"
	.linkonce discard
	.align 2
	.p2align 4
	.globl	_ZNSt12_Vector_baseISt6vectorIxSaIxEESaIS2_EE12_Vector_implD1Ev
	.def	_ZNSt12_Vector_baseISt6vectorIxSaIxEESaIS2_EE12_Vector_implD1Ev;	.scl	2;	.type	32;	.endef
	.seh_proc	_ZNSt12_Vector_baseISt6vectorIxSaIxEESaIS2_EE12_Vector_implD1Ev
_ZNSt12_Vector_baseISt6vectorIxSaIxEESaIS2_EE12_Vector_implD1Ev:
.LFB9264:
	pushq	%rbp
	.seh_pushreg	%rbp
	movq	%rsp, %rbp
	.seh_setframe	%rbp, 0
	subq	$32, %rsp
	.seh_stackalloc	32
	.seh_endprologue
	movq	%rcx, 16(%rbp)
	movq	16(%rbp), %rcx
	call	_ZNSaISt6vectorIxSaIxEEED2Ev
	nop
	addq	$32, %rsp
	popq	%rbp
	ret
	.seh_endproc
	.section	.text$_ZNSt12_Vector_baseISt6vectorIxSaIxEESaIS2_EEC2EmRKS3_,"x"
	.linkonce discard
	.align 2
	.p2align 4
	.globl	_ZNSt12_Vector_baseISt6vectorIxSaIxEESaIS2_EEC2EmRKS3_
	.def	_ZNSt12_Vector_baseISt6vectorIxSaIxEESaIS2_EEC2EmRKS3_;	.scl	2;	.type	32;	.endef
	.seh_proc	_ZNSt12_Vector_baseISt6vectorIxSaIxEESaIS2_EEC2EmRKS3_
_ZNSt12_Vector_baseISt6vectorIxSaIxEESaIS2_EEC2EmRKS3_:
.LFB9265:
	pushq	%rbp
	.seh_pushreg	%rbp
	pushq	%rbx
	.seh_pushreg	%rbx
	subq	$40, %rsp
	.seh_stackalloc	40
	leaq	128(%rsp), %rbp
	.seh_setframe	%rbp, 128
	.seh_endprologue
	movq	%rcx, -64(%rbp)
	movq	%rdx, -56(%rbp)
	movq	%r8, -48(%rbp)
	movq	-64(%rbp), %rax
	movq	-48(%rbp), %rdx
	movq	%rax, %rcx
	call	_ZNSt12_Vector_baseISt6vectorIxSaIxEESaIS2_EE12_Vector_implC1ERKS3_
	movq	-56(%rbp), %rax
	movq	%rax, %rdx
	movq	-64(%rbp), %rcx
.LEHB20:
	call	_ZNSt12_Vector_baseISt6vectorIxSaIxEESaIS2_EE17_M_create_storageEm
.LEHE20:
	jmp	.L89
.L88:
	movq	%rax, %rbx
	movq	-64(%rbp), %rax
	movq	%rax, %rcx
	call	_ZNSt12_Vector_baseISt6vectorIxSaIxEESaIS2_EE12_Vector_implD1Ev
	movq	%rbx, %rax
	movq	%rax, %rcx
.LEHB21:
	call	_Unwind_Resume
	nop
.LEHE21:
.L89:
	addq	$40, %rsp
	popq	%rbx
	popq	%rbp
	ret
	.seh_handler	__gxx_personality_seh0, @unwind, @except
	.seh_handlerdata
.LLSDA9265:
	.byte	0xff
	.byte	0xff
	.byte	0x1
	.uleb128 .LLSDACSE9265-.LLSDACSB9265
.LLSDACSB9265:
	.uleb128 .LEHB20-.LFB9265
	.uleb128 .LEHE20-.LEHB20
	.uleb128 .L88-.LFB9265
	.uleb128 0
	.uleb128 .LEHB21-.LFB9265
	.uleb128 .LEHE21-.LEHB21
	.uleb128 0
	.uleb128 0
.LLSDACSE9265:
	.section	.text$_ZNSt12_Vector_baseISt6vectorIxSaIxEESaIS2_EEC2EmRKS3_,"x"
	.linkonce discard
	.seh_endproc
	.section	.text$_ZNSt12_Vector_baseISt6vectorIxSaIxEESaIS2_EED2Ev,"x"
	.linkonce discard
	.align 2
	.p2align 4
	.globl	_ZNSt12_Vector_baseISt6vectorIxSaIxEESaIS2_EED2Ev
	.def	_ZNSt12_Vector_baseISt6vectorIxSaIxEESaIS2_EED2Ev;	.scl	2;	.type	32;	.endef
	.seh_proc	_ZNSt12_Vector_baseISt6vectorIxSaIxEESaIS2_EED2Ev
_ZNSt12_Vector_baseISt6vectorIxSaIxEESaIS2_EED2Ev:
.LFB9268:
	pushq	%rbp
	.seh_pushreg	%rbp
	movq	%rsp, %rbp
	.seh_setframe	%rbp, 0
	subq	$32, %rsp
	.seh_stackalloc	32
	.seh_endprologue
	movq	%rcx, 16(%rbp)
	movq	16(%rbp), %rax
	movq	16(%rax), %rdx
	movq	16(%rbp), %rax
	movq	(%rax), %rcx
	movq	%rdx, %rax
	subq	%rcx, %rax
	sarq	$3, %rax
	movq	%rax, %rdx
	movabsq	$-6148914691236517205, %rax
	imulq	%rdx, %rax
	movq	%rax, %rdx
	movq	16(%rbp), %rax
	movq	(%rax), %rax
	movq	%rdx, %r8
	movq	%rax, %rdx
	movq	16(%rbp), %rcx
	call	_ZNSt12_Vector_baseISt6vectorIxSaIxEESaIS2_EE13_M_deallocateEPS2_m
	movq	16(%rbp), %rax
	movq	%rax, %rcx
	call	_ZNSt12_Vector_baseISt6vectorIxSaIxEESaIS2_EE12_Vector_implD1Ev
	nop
	addq	$32, %rsp
	popq	%rbp
	ret
	.seh_handler	__gxx_personality_seh0, @unwind, @except
	.seh_handlerdata
.LLSDA9268:
	.byte	0xff
	.byte	0xff
	.byte	0x1
	.uleb128 .LLSDACSE9268-.LLSDACSB9268
.LLSDACSB9268:
.LLSDACSE9268:
	.section	.text$_ZNSt12_Vector_baseISt6vectorIxSaIxEESaIS2_EED2Ev,"x"
	.linkonce discard
	.seh_endproc
	.section	.text$_ZNSt6vectorIS_IxSaIxEESaIS1_EE18_M_fill_initializeEmRKS1_,"x"
	.linkonce discard
	.align 2
	.p2align 4
	.globl	_ZNSt6vectorIS_IxSaIxEESaIS1_EE18_M_fill_initializeEmRKS1_
	.def	_ZNSt6vectorIS_IxSaIxEESaIS1_EE18_M_fill_initializeEmRKS1_;	.scl	2;	.type	32;	.endef
	.seh_proc	_ZNSt6vectorIS_IxSaIxEESaIS1_EE18_M_fill_initializeEmRKS1_
_ZNSt6vectorIS_IxSaIxEESaIS1_EE18_M_fill_initializeEmRKS1_:
.LFB9270:
	pushq	%rbp
	.seh_pushreg	%rbp
	movq	%rsp, %rbp
	.seh_setframe	%rbp, 0
	subq	$32, %rsp
	.seh_stackalloc	32
	.seh_endprologue
	movq	%rcx, 16(%rbp)
	movq	%rdx, 24(%rbp)
	movq	%r8, 32(%rbp)
	movq	16(%rbp), %rax
	movq	%rax, %rcx
	call	_ZNSt12_Vector_baseISt6vectorIxSaIxEESaIS2_EE19_M_get_Tp_allocatorEv
	movq	%rax, %rcx
	movq	16(%rbp), %rax
	movq	(%rax), %rax
	movq	32(%rbp), %r8
	movq	24(%rbp), %rdx
	movq	%rcx, %r9
	movq	%rax, %rcx
	call	_ZSt24__uninitialized_fill_n_aIPSt6vectorIxSaIxEEmS2_S2_ET_S4_T0_RKT1_RSaIT2_E
	movq	16(%rbp), %rdx
	movq	%rax, 8(%rdx)
	nop
	addq	$32, %rsp
	popq	%rbp
	ret
	.seh_endproc
	.section	.text$_ZNSt12_Vector_baseISt6vectorIxSaIxEESaIS2_EE19_M_get_Tp_allocatorEv,"x"
	.linkonce discard
	.align 2
	.p2align 4
	.globl	_ZNSt12_Vector_baseISt6vectorIxSaIxEESaIS2_EE19_M_get_Tp_allocatorEv
	.def	_ZNSt12_Vector_baseISt6vectorIxSaIxEESaIS2_EE19_M_get_Tp_allocatorEv;	.scl	2;	.type	32;	.endef
	.seh_proc	_ZNSt12_Vector_baseISt6vectorIxSaIxEESaIS2_EE19_M_get_Tp_allocatorEv
_ZNSt12_Vector_baseISt6vectorIxSaIxEESaIS2_EE19_M_get_Tp_allocatorEv:
.LFB9271:
	pushq	%rbp
	.seh_pushreg	%rbp
	movq	%rsp, %rbp
	.seh_setframe	%rbp, 0
	.seh_endprologue
	movq	%rcx, 16(%rbp)
	movq	16(%rbp), %rax
	popq	%rbp
	ret
	.seh_endproc
	.section	.text$_ZSt8_DestroyIPSt6vectorIxSaIxEES2_EvT_S4_RSaIT0_E,"x"
	.linkonce discard
	.p2align 4
	.globl	_ZSt8_DestroyIPSt6vectorIxSaIxEES2_EvT_S4_RSaIT0_E
	.def	_ZSt8_DestroyIPSt6vectorIxSaIxEES2_EvT_S4_RSaIT0_E;	.scl	2;	.type	32;	.endef
	.seh_proc	_ZSt8_DestroyIPSt6vectorIxSaIxEES2_EvT_S4_RSaIT0_E
_ZSt8_DestroyIPSt6vectorIxSaIxEES2_EvT_S4_RSaIT0_E:
.LFB9272:
	pushq	%rbp
	.seh_pushreg	%rbp
	movq	%rsp, %rbp
	.seh_setframe	%rbp, 0
	subq	$32, %rsp
	.seh_stackalloc	32
	.seh_endprologue
	movq	%rcx, 16(%rbp)
	movq	%rdx, 24(%rbp)
	movq	%r8, 32(%rbp)
	movq	24(%rbp), %rax
	movq	%rax, %rdx
	movq	16(%rbp), %rcx
	call	_ZSt8_DestroyIPSt6vectorIxSaIxEEEvT_S4_
	nop
	addq	$32, %rsp
	popq	%rbp
	ret
	.seh_endproc
	.section	.text$_ZNKSt16initializer_listIxE5beginEv,"x"
	.linkonce discard
	.align 2
	.p2align 4
	.globl	_ZNKSt16initializer_listIxE5beginEv
	.def	_ZNKSt16initializer_listIxE5beginEv;	.scl	2;	.type	32;	.endef
	.seh_proc	_ZNKSt16initializer_listIxE5beginEv
_ZNKSt16initializer_listIxE5beginEv:
.LFB9273:
	pushq	%rbp
	.seh_pushreg	%rbp
	movq	%rsp, %rbp
	.seh_setframe	%rbp, 0
	.seh_endprologue
	movq	%rcx, 16(%rbp)
	movq	16(%rbp), %rax
	movq	(%rax), %rax
	popq	%rbp
	ret
	.seh_endproc
	.section	.text$_ZNKSt16initializer_listIxE3endEv,"x"
	.linkonce discard
	.align 2
	.p2align 4
	.globl	_ZNKSt16initializer_listIxE3endEv
	.def	_ZNKSt16initializer_listIxE3endEv;	.scl	2;	.type	32;	.endef
	.seh_proc	_ZNKSt16initializer_listIxE3endEv
_ZNKSt16initializer_listIxE3endEv:
.LFB9274:
	pushq	%rbp
	.seh_pushreg	%rbp
	pushq	%rbx
	.seh_pushreg	%rbx
	subq	$40, %rsp
	.seh_stackalloc	40
	leaq	128(%rsp), %rbp
	.seh_setframe	%rbp, 128
	.seh_endprologue
	movq	%rcx, -64(%rbp)
	movq	-64(%rbp), %rcx
	call	_ZNKSt16initializer_listIxE5beginEv
	movq	%rax, %rbx
	movq	-64(%rbp), %rcx
	call	_ZNKSt16initializer_listIxE4sizeEv
	salq	$3, %rax
	addq	%rbx, %rax
	addq	$40, %rsp
	popq	%rbx
	popq	%rbp
	ret
	.seh_endproc
	.section	.text$_ZNSt6vectorIxSaIxEE13_M_assign_auxIPKxEEvT_S5_St20forward_iterator_tag,"x"
	.linkonce discard
	.align 2
	.p2align 4
	.globl	_ZNSt6vectorIxSaIxEE13_M_assign_auxIPKxEEvT_S5_St20forward_iterator_tag
	.def	_ZNSt6vectorIxSaIxEE13_M_assign_auxIPKxEEvT_S5_St20forward_iterator_tag;	.scl	2;	.type	32;	.endef
	.seh_proc	_ZNSt6vectorIxSaIxEE13_M_assign_auxIPKxEEvT_S5_St20forward_iterator_tag
_ZNSt6vectorIxSaIxEE13_M_assign_auxIPKxEEvT_S5_St20forward_iterator_tag:
.LFB9275:
	pushq	%rbp
	.seh_pushreg	%rbp
	movq	%rsp, %rbp
	.seh_setframe	%rbp, 0
	subq	$64, %rsp
	.seh_stackalloc	64
	.seh_endprologue
	movq	%rcx, 16(%rbp)
	movq	%rdx, 24(%rbp)
	movq	%r8, 32(%rbp)
	movq	32(%rbp), %rdx
	movq	24(%rbp), %rax
	movq	%rax, %rcx
	call	_ZSt8distanceIPKxENSt15iterator_traitsIT_E15difference_typeES3_S3_
	movq	%rax, -8(%rbp)
	movq	16(%rbp), %rcx
	call	_ZNKSt6vectorIxSaIxEE8capacityEv
	cmpq	%rax, -8(%rbp)
	seta	%al
	testb	%al, %al
	je	.L100
	movq	16(%rbp), %rax
	movq	%rax, %rcx
	call	_ZNSt12_Vector_baseIxSaIxEE19_M_get_Tp_allocatorEv
	movq	%rax, %rdx
	movq	-8(%rbp), %rax
	movq	%rax, %rcx
	call	_ZNSt6vectorIxSaIxEE17_S_check_init_lenEmRKS0_
	movq	32(%rbp), %rcx
	movq	24(%rbp), %rdx
	movq	-8(%rbp), %rax
	movq	%rcx, %r9
	movq	%rdx, %r8
	movq	%rax, %rdx
	movq	16(%rbp), %rcx
	call	_ZNSt6vectorIxSaIxEE20_M_allocate_and_copyIPKxEEPxmT_S6_
	movq	%rax, -24(%rbp)
	movq	16(%rbp), %rax
	movq	%rax, %rcx
	call	_ZNSt12_Vector_baseIxSaIxEE19_M_get_Tp_allocatorEv
	movq	%rax, %rcx
	movq	16(%rbp), %rax
	movq	8(%rax), %rdx
	movq	16(%rbp), %rax
	movq	(%rax), %rax
	movq	%rcx, %r8
	movq	%rax, %rcx
	call	_ZSt8_DestroyIPxxEvT_S1_RSaIT0_E
	movq	16(%rbp), %rax
	movq	16(%rbp), %rdx
	movq	16(%rdx), %rcx
	movq	16(%rbp), %rdx
	movq	(%rdx), %r8
	subq	%r8, %rcx
	movq	%rcx, %rdx
	sarq	$3, %rdx
	movq	%rdx, %rcx
	movq	16(%rbp), %rdx
	movq	(%rdx), %rdx
	movq	%rcx, %r8
	movq	%rax, %rcx
	call	_ZNSt12_Vector_baseIxSaIxEE13_M_deallocateEPxm
	movq	16(%rbp), %rax
	movq	-24(%rbp), %rdx
	movq	%rdx, (%rax)
	movq	16(%rbp), %rax
	movq	(%rax), %rdx
	movq	-8(%rbp), %rax
	salq	$3, %rax
	addq	%rax, %rdx
	movq	16(%rbp), %rax
	movq	%rdx, 8(%rax)
	movq	16(%rbp), %rax
	movq	8(%rax), %rdx
	movq	16(%rbp), %rax
	movq	%rdx, 16(%rax)
	jmp	.L103
.L100:
	movq	16(%rbp), %rcx
	call	_ZNKSt6vectorIxSaIxEE4sizeEv
	cmpq	%rax, -8(%rbp)
	setbe	%al
	testb	%al, %al
	je	.L102
	movq	16(%rbp), %rax
	movq	(%rax), %rcx
	movq	32(%rbp), %rdx
	movq	24(%rbp), %rax
	movq	%rcx, %r8
	movq	%rax, %rcx
	call	_ZSt4copyIPKxPxET0_T_S4_S3_
	movq	%rax, %rdx
	movq	16(%rbp), %rcx
	call	_ZNSt6vectorIxSaIxEE15_M_erase_at_endEPx
	jmp	.L103
.L102:
	movq	24(%rbp), %rax
	movq	%rax, -32(%rbp)
	movq	16(%rbp), %rcx
	call	_ZNKSt6vectorIxSaIxEE4sizeEv
	movq	%rax, %rdx
	leaq	-32(%rbp), %rax
	movq	%rax, %rcx
	call	_ZSt7advanceIPKxmEvRT_T0_
	movq	16(%rbp), %rax
	movq	(%rax), %rcx
	movq	-32(%rbp), %rdx
	movq	24(%rbp), %rax
	movq	%rcx, %r8
	movq	%rax, %rcx
	call	_ZSt4copyIPKxPxET0_T_S4_S3_
	movq	16(%rbp), %rcx
	call	_ZNKSt6vectorIxSaIxEE4sizeEv
	movq	%rax, %rdx
	movq	-8(%rbp), %rax
	subq	%rdx, %rax
	movq	%rax, -16(%rbp)
	movq	16(%rbp), %rax
	movq	%rax, %rcx
	call	_ZNSt12_Vector_baseIxSaIxEE19_M_get_Tp_allocatorEv
	movq	%rax, %rcx
	movq	16(%rbp), %rax
	movq	8(%rax), %r8
	movq	-32(%rbp), %rax
	movq	32(%rbp), %rdx
	movq	%rcx, %r9
	movq	%rax, %rcx
	call	_ZSt22__uninitialized_copy_aIPKxPxxET0_T_S4_S3_RSaIT1_E
	movq	16(%rbp), %rdx
	movq	%rax, 8(%rdx)
.L103:
	nop
	addq	$64, %rsp
	popq	%rbp
	ret
	.seh_endproc
	.section	.text$_ZNSt6vectorIxSaIxEE11_S_max_sizeERKS0_,"x"
	.linkonce discard
	.p2align 4
	.globl	_ZNSt6vectorIxSaIxEE11_S_max_sizeERKS0_
	.def	_ZNSt6vectorIxSaIxEE11_S_max_sizeERKS0_;	.scl	2;	.type	32;	.endef
	.seh_proc	_ZNSt6vectorIxSaIxEE11_S_max_sizeERKS0_
_ZNSt6vectorIxSaIxEE11_S_max_sizeERKS0_:
.LFB9418:
	pushq	%rbp
	.seh_pushreg	%rbp
	movq	%rsp, %rbp
	.seh_setframe	%rbp, 0
	subq	$48, %rsp
	.seh_stackalloc	48
	.seh_endprologue
	movq	%rcx, 16(%rbp)
	movabsq	$1152921504606846975, %rax
	movq	%rax, -8(%rbp)
	movq	16(%rbp), %rcx
	call	_ZNSt16allocator_traitsISaIxEE8max_sizeERKS0_
	movq	%rax, -16(%rbp)
	leaq	-16(%rbp), %rdx
	leaq	-8(%rbp), %rax
	movq	%rax, %rcx
	call	_ZSt3minImERKT_S2_S2_
	movq	(%rax), %rax
	addq	$48, %rsp
	popq	%rbp
	ret
	.seh_endproc
	.section	.text$_ZNSaIxEC2ERKS_,"x"
	.linkonce discard
	.align 2
	.p2align 4
	.globl	_ZNSaIxEC2ERKS_
	.def	_ZNSaIxEC2ERKS_;	.scl	2;	.type	32;	.endef
	.seh_proc	_ZNSaIxEC2ERKS_
_ZNSaIxEC2ERKS_:
.LFB9420:
	pushq	%rbp
	.seh_pushreg	%rbp
	movq	%rsp, %rbp
	.seh_setframe	%rbp, 0
	subq	$32, %rsp
	.seh_stackalloc	32
	.seh_endprologue
	movq	%rcx, 16(%rbp)
	movq	%rdx, 24(%rbp)
	movq	24(%rbp), %rax
	movq	%rax, %rdx
	movq	16(%rbp), %rcx
	call	_ZN9__gnu_cxx13new_allocatorIxEC2ERKS1_
	nop
	addq	$32, %rsp
	popq	%rbp
	ret
	.seh_endproc
	.section	.text$_ZNSaIxEC1ERKS_,"x"
	.linkonce discard
	.align 2
	.p2align 4
	.globl	_ZNSaIxEC1ERKS_
	.def	_ZNSaIxEC1ERKS_;	.scl	2;	.type	32;	.endef
	.seh_proc	_ZNSaIxEC1ERKS_
_ZNSaIxEC1ERKS_:
.LFB9421:
	pushq	%rbp
	.seh_pushreg	%rbp
	movq	%rsp, %rbp
	.seh_setframe	%rbp, 0
	subq	$32, %rsp
	.seh_stackalloc	32
	.seh_endprologue
	movq	%rcx, 16(%rbp)
	movq	%rdx, 24(%rbp)
	movq	24(%rbp), %rax
	movq	%rax, %rdx
	movq	16(%rbp), %rcx
	call	_ZN9__gnu_cxx13new_allocatorIxEC2ERKS1_
	nop
	addq	$32, %rsp
	popq	%rbp
	ret
	.seh_endproc
	.section	.text$_ZNSt12_Vector_baseIxSaIxEE12_Vector_implC1ERKS0_,"x"
	.linkonce discard
	.align 2
	.p2align 4
	.globl	_ZNSt12_Vector_baseIxSaIxEE12_Vector_implC1ERKS0_
	.def	_ZNSt12_Vector_baseIxSaIxEE12_Vector_implC1ERKS0_;	.scl	2;	.type	32;	.endef
	.seh_proc	_ZNSt12_Vector_baseIxSaIxEE12_Vector_implC1ERKS0_
_ZNSt12_Vector_baseIxSaIxEE12_Vector_implC1ERKS0_:
.LFB9424:
	pushq	%rbp
	.seh_pushreg	%rbp
	movq	%rsp, %rbp
	.seh_setframe	%rbp, 0
	subq	$32, %rsp
	.seh_stackalloc	32
	.seh_endprologue
	movq	%rcx, 16(%rbp)
	movq	%rdx, 24(%rbp)
	movq	24(%rbp), %rax
	movq	%rax, %rdx
	movq	16(%rbp), %rcx
	call	_ZNSaIxEC2ERKS_
	movq	16(%rbp), %rax
	movq	%rax, %rcx
	call	_ZNSt12_Vector_baseIxSaIxEE17_Vector_impl_dataC2Ev
	nop
	addq	$32, %rsp
	popq	%rbp
	ret
	.seh_endproc
	.section	.text$_ZNSt12_Vector_baseIxSaIxEE17_M_create_storageEm,"x"
	.linkonce discard
	.align 2
	.p2align 4
	.globl	_ZNSt12_Vector_baseIxSaIxEE17_M_create_storageEm
	.def	_ZNSt12_Vector_baseIxSaIxEE17_M_create_storageEm;	.scl	2;	.type	32;	.endef
	.seh_proc	_ZNSt12_Vector_baseIxSaIxEE17_M_create_storageEm
_ZNSt12_Vector_baseIxSaIxEE17_M_create_storageEm:
.LFB9425:
	pushq	%rbp
	.seh_pushreg	%rbp
	movq	%rsp, %rbp
	.seh_setframe	%rbp, 0
	subq	$32, %rsp
	.seh_stackalloc	32
	.seh_endprologue
	movq	%rcx, 16(%rbp)
	movq	%rdx, 24(%rbp)
	movq	24(%rbp), %rax
	movq	%rax, %rdx
	movq	16(%rbp), %rcx
	call	_ZNSt12_Vector_baseIxSaIxEE11_M_allocateEm
	movq	16(%rbp), %rdx
	movq	%rax, (%rdx)
	movq	16(%rbp), %rax
	movq	(%rax), %rdx
	movq	16(%rbp), %rax
	movq	%rdx, 8(%rax)
	movq	16(%rbp), %rax
	movq	(%rax), %rdx
	movq	24(%rbp), %rax
	salq	$3, %rax
	addq	%rax, %rdx
	movq	16(%rbp), %rax
	movq	%rdx, 16(%rax)
	nop
	addq	$32, %rsp
	popq	%rbp
	ret
	.seh_endproc
	.section	.text$_ZNSt12_Vector_baseIxSaIxEE13_M_deallocateEPxm,"x"
	.linkonce discard
	.align 2
	.p2align 4
	.globl	_ZNSt12_Vector_baseIxSaIxEE13_M_deallocateEPxm
	.def	_ZNSt12_Vector_baseIxSaIxEE13_M_deallocateEPxm;	.scl	2;	.type	32;	.endef
	.seh_proc	_ZNSt12_Vector_baseIxSaIxEE13_M_deallocateEPxm
_ZNSt12_Vector_baseIxSaIxEE13_M_deallocateEPxm:
.LFB9426:
	pushq	%rbp
	.seh_pushreg	%rbp
	movq	%rsp, %rbp
	.seh_setframe	%rbp, 0
	subq	$32, %rsp
	.seh_stackalloc	32
	.seh_endprologue
	movq	%rcx, 16(%rbp)
	movq	%rdx, 24(%rbp)
	movq	%r8, 32(%rbp)
	cmpq	$0, 24(%rbp)
	je	.L112
	movq	16(%rbp), %rax
	movq	32(%rbp), %rcx
	movq	24(%rbp), %rdx
	movq	%rcx, %r8
	movq	%rax, %rcx
	call	_ZNSt16allocator_traitsISaIxEE10deallocateERS0_Pxm
.L112:
	nop
	addq	$32, %rsp
	popq	%rbp
	ret
	.seh_endproc
	.section	.text$_ZSt27__uninitialized_default_n_aIPxmxET_S1_T0_RSaIT1_E,"x"
	.linkonce discard
	.p2align 4
	.globl	_ZSt27__uninitialized_default_n_aIPxmxET_S1_T0_RSaIT1_E
	.def	_ZSt27__uninitialized_default_n_aIPxmxET_S1_T0_RSaIT1_E;	.scl	2;	.type	32;	.endef
	.seh_proc	_ZSt27__uninitialized_default_n_aIPxmxET_S1_T0_RSaIT1_E
_ZSt27__uninitialized_default_n_aIPxmxET_S1_T0_RSaIT1_E:
.LFB9427:
	pushq	%rbp
	.seh_pushreg	%rbp
	movq	%rsp, %rbp
	.seh_setframe	%rbp, 0
	subq	$32, %rsp
	.seh_stackalloc	32
	.seh_endprologue
	movq	%rcx, 16(%rbp)
	movq	%rdx, 24(%rbp)
	movq	%r8, 32(%rbp)
	movq	24(%rbp), %rax
	movq	%rax, %rdx
	movq	16(%rbp), %rcx
	call	_ZSt25__uninitialized_default_nIPxmET_S1_T0_
	addq	$32, %rsp
	popq	%rbp
	ret
	.seh_endproc
	.section	.text$_ZSt8_DestroyIPxEvT_S1_,"x"
	.linkonce discard
	.p2align 4
	.globl	_ZSt8_DestroyIPxEvT_S1_
	.def	_ZSt8_DestroyIPxEvT_S1_;	.scl	2;	.type	32;	.endef
	.seh_proc	_ZSt8_DestroyIPxEvT_S1_
_ZSt8_DestroyIPxEvT_S1_:
.LFB9428:
	pushq	%rbp
	.seh_pushreg	%rbp
	movq	%rsp, %rbp
	.seh_setframe	%rbp, 0
	subq	$32, %rsp
	.seh_stackalloc	32
	.seh_endprologue
	movq	%rcx, 16(%rbp)
	movq	%rdx, 24(%rbp)
	movq	24(%rbp), %rax
	movq	%rax, %rdx
	movq	16(%rbp), %rcx
	call	_ZNSt12_Destroy_auxILb1EE9__destroyIPxEEvT_S3_
	nop
	addq	$32, %rsp
	popq	%rbp
	ret
	.seh_endproc
	.section	.text$_ZSt24__uninitialized_fill_n_aIPxmxxET_S1_T0_RKT1_RSaIT2_E,"x"
	.linkonce discard
	.p2align 4
	.globl	_ZSt24__uninitialized_fill_n_aIPxmxxET_S1_T0_RKT1_RSaIT2_E
	.def	_ZSt24__uninitialized_fill_n_aIPxmxxET_S1_T0_RKT1_RSaIT2_E;	.scl	2;	.type	32;	.endef
	.seh_proc	_ZSt24__uninitialized_fill_n_aIPxmxxET_S1_T0_RKT1_RSaIT2_E
_ZSt24__uninitialized_fill_n_aIPxmxxET_S1_T0_RKT1_RSaIT2_E:
.LFB9430:
	pushq	%rbp
	.seh_pushreg	%rbp
	movq	%rsp, %rbp
	.seh_setframe	%rbp, 0
	subq	$32, %rsp
	.seh_stackalloc	32
	.seh_endprologue
	movq	%rcx, 16(%rbp)
	movq	%rdx, 24(%rbp)
	movq	%r8, 32(%rbp)
	movq	%r9, 40(%rbp)
	movq	32(%rbp), %rdx
	movq	24(%rbp), %rax
	movq	%rdx, %r8
	movq	%rax, %rdx
	movq	16(%rbp), %rcx
	call	_ZSt20uninitialized_fill_nIPxmxET_S1_T0_RKT1_
	addq	$32, %rsp
	popq	%rbp
	ret
	.seh_endproc
	.section	.text$_ZNSt6vectorIS_IxSaIxEESaIS1_EE11_S_max_sizeERKS2_,"x"
	.linkonce discard
	.p2align 4
	.globl	_ZNSt6vectorIS_IxSaIxEESaIS1_EE11_S_max_sizeERKS2_
	.def	_ZNSt6vectorIS_IxSaIxEESaIS1_EE11_S_max_sizeERKS2_;	.scl	2;	.type	32;	.endef
	.seh_proc	_ZNSt6vectorIS_IxSaIxEESaIS1_EE11_S_max_sizeERKS2_
_ZNSt6vectorIS_IxSaIxEESaIS1_EE11_S_max_sizeERKS2_:
.LFB9431:
	pushq	%rbp
	.seh_pushreg	%rbp
	movq	%rsp, %rbp
	.seh_setframe	%rbp, 0
	subq	$48, %rsp
	.seh_stackalloc	48
	.seh_endprologue
	movq	%rcx, 16(%rbp)
	movabsq	$384307168202282325, %rax
	movq	%rax, -8(%rbp)
	movq	16(%rbp), %rcx
	call	_ZNSt16allocator_traitsISaISt6vectorIxSaIxEEEE8max_sizeERKS3_
	movq	%rax, -16(%rbp)
	leaq	-16(%rbp), %rdx
	leaq	-8(%rbp), %rax
	movq	%rax, %rcx
	call	_ZSt3minImERKT_S2_S2_
	movq	(%rax), %rax
	addq	$48, %rsp
	popq	%rbp
	ret
	.seh_endproc
	.section	.text$_ZNSaISt6vectorIxSaIxEEEC2ERKS2_,"x"
	.linkonce discard
	.align 2
	.p2align 4
	.globl	_ZNSaISt6vectorIxSaIxEEEC2ERKS2_
	.def	_ZNSaISt6vectorIxSaIxEEEC2ERKS2_;	.scl	2;	.type	32;	.endef
	.seh_proc	_ZNSaISt6vectorIxSaIxEEEC2ERKS2_
_ZNSaISt6vectorIxSaIxEEEC2ERKS2_:
.LFB9433:
	pushq	%rbp
	.seh_pushreg	%rbp
	movq	%rsp, %rbp
	.seh_setframe	%rbp, 0
	subq	$32, %rsp
	.seh_stackalloc	32
	.seh_endprologue
	movq	%rcx, 16(%rbp)
	movq	%rdx, 24(%rbp)
	movq	24(%rbp), %rax
	movq	%rax, %rdx
	movq	16(%rbp), %rcx
	call	_ZN9__gnu_cxx13new_allocatorISt6vectorIxSaIxEEEC2ERKS4_
	nop
	addq	$32, %rsp
	popq	%rbp
	ret
	.seh_endproc
	.section	.text$_ZNSaISt6vectorIxSaIxEEEC1ERKS2_,"x"
	.linkonce discard
	.align 2
	.p2align 4
	.globl	_ZNSaISt6vectorIxSaIxEEEC1ERKS2_
	.def	_ZNSaISt6vectorIxSaIxEEEC1ERKS2_;	.scl	2;	.type	32;	.endef
	.seh_proc	_ZNSaISt6vectorIxSaIxEEEC1ERKS2_
_ZNSaISt6vectorIxSaIxEEEC1ERKS2_:
.LFB9434:
	pushq	%rbp
	.seh_pushreg	%rbp
	movq	%rsp, %rbp
	.seh_setframe	%rbp, 0
	subq	$32, %rsp
	.seh_stackalloc	32
	.seh_endprologue
	movq	%rcx, 16(%rbp)
	movq	%rdx, 24(%rbp)
	movq	24(%rbp), %rax
	movq	%rax, %rdx
	movq	16(%rbp), %rcx
	call	_ZN9__gnu_cxx13new_allocatorISt6vectorIxSaIxEEEC2ERKS4_
	nop
	addq	$32, %rsp
	popq	%rbp
	ret
	.seh_endproc
	.section	.text$_ZNSt12_Vector_baseISt6vectorIxSaIxEESaIS2_EE12_Vector_implC1ERKS3_,"x"
	.linkonce discard
	.align 2
	.p2align 4
	.globl	_ZNSt12_Vector_baseISt6vectorIxSaIxEESaIS2_EE12_Vector_implC1ERKS3_
	.def	_ZNSt12_Vector_baseISt6vectorIxSaIxEESaIS2_EE12_Vector_implC1ERKS3_;	.scl	2;	.type	32;	.endef
	.seh_proc	_ZNSt12_Vector_baseISt6vectorIxSaIxEESaIS2_EE12_Vector_implC1ERKS3_
_ZNSt12_Vector_baseISt6vectorIxSaIxEESaIS2_EE12_Vector_implC1ERKS3_:
.LFB9437:
	pushq	%rbp
	.seh_pushreg	%rbp
	movq	%rsp, %rbp
	.seh_setframe	%rbp, 0
	subq	$32, %rsp
	.seh_stackalloc	32
	.seh_endprologue
	movq	%rcx, 16(%rbp)
	movq	%rdx, 24(%rbp)
	movq	24(%rbp), %rax
	movq	%rax, %rdx
	movq	16(%rbp), %rcx
	call	_ZNSaISt6vectorIxSaIxEEEC2ERKS2_
	movq	16(%rbp), %rax
	movq	%rax, %rcx
	call	_ZNSt12_Vector_baseISt6vectorIxSaIxEESaIS2_EE17_Vector_impl_dataC2Ev
	nop
	addq	$32, %rsp
	popq	%rbp
	ret
	.seh_endproc
	.section	.text$_ZNSt12_Vector_baseISt6vectorIxSaIxEESaIS2_EE17_M_create_storageEm,"x"
	.linkonce discard
	.align 2
	.p2align 4
	.globl	_ZNSt12_Vector_baseISt6vectorIxSaIxEESaIS2_EE17_M_create_storageEm
	.def	_ZNSt12_Vector_baseISt6vectorIxSaIxEESaIS2_EE17_M_create_storageEm;	.scl	2;	.type	32;	.endef
	.seh_proc	_ZNSt12_Vector_baseISt6vectorIxSaIxEESaIS2_EE17_M_create_storageEm
_ZNSt12_Vector_baseISt6vectorIxSaIxEESaIS2_EE17_M_create_storageEm:
.LFB9438:
	pushq	%rbp
	.seh_pushreg	%rbp
	movq	%rsp, %rbp
	.seh_setframe	%rbp, 0
	subq	$32, %rsp
	.seh_stackalloc	32
	.seh_endprologue
	movq	%rcx, 16(%rbp)
	movq	%rdx, 24(%rbp)
	movq	24(%rbp), %rax
	movq	%rax, %rdx
	movq	16(%rbp), %rcx
	call	_ZNSt12_Vector_baseISt6vectorIxSaIxEESaIS2_EE11_M_allocateEm
	movq	16(%rbp), %rdx
	movq	%rax, (%rdx)
	movq	16(%rbp), %rax
	movq	(%rax), %rdx
	movq	16(%rbp), %rax
	movq	%rdx, 8(%rax)
	movq	16(%rbp), %rax
	movq	(%rax), %rcx
	movq	24(%rbp), %rdx
	movq	%rdx, %rax
	addq	%rax, %rax
	addq	%rdx, %rax
	salq	$3, %rax
	leaq	(%rcx,%rax), %rdx
	movq	16(%rbp), %rax
	movq	%rdx, 16(%rax)
	nop
	addq	$32, %rsp
	popq	%rbp
	ret
	.seh_endproc
	.section	.text$_ZNSt12_Vector_baseISt6vectorIxSaIxEESaIS2_EE13_M_deallocateEPS2_m,"x"
	.linkonce discard
	.align 2
	.p2align 4
	.globl	_ZNSt12_Vector_baseISt6vectorIxSaIxEESaIS2_EE13_M_deallocateEPS2_m
	.def	_ZNSt12_Vector_baseISt6vectorIxSaIxEESaIS2_EE13_M_deallocateEPS2_m;	.scl	2;	.type	32;	.endef
	.seh_proc	_ZNSt12_Vector_baseISt6vectorIxSaIxEESaIS2_EE13_M_deallocateEPS2_m
_ZNSt12_Vector_baseISt6vectorIxSaIxEESaIS2_EE13_M_deallocateEPS2_m:
.LFB9439:
	pushq	%rbp
	.seh_pushreg	%rbp
	movq	%rsp, %rbp
	.seh_setframe	%rbp, 0
	subq	$32, %rsp
	.seh_stackalloc	32
	.seh_endprologue
	movq	%rcx, 16(%rbp)
	movq	%rdx, 24(%rbp)
	movq	%r8, 32(%rbp)
	cmpq	$0, 24(%rbp)
	je	.L126
	movq	16(%rbp), %rax
	movq	32(%rbp), %rcx
	movq	24(%rbp), %rdx
	movq	%rcx, %r8
	movq	%rax, %rcx
	call	_ZNSt16allocator_traitsISaISt6vectorIxSaIxEEEE10deallocateERS3_PS2_m
.L126:
	nop
	addq	$32, %rsp
	popq	%rbp
	ret
	.seh_endproc
	.section	.text$_ZSt24__uninitialized_fill_n_aIPSt6vectorIxSaIxEEmS2_S2_ET_S4_T0_RKT1_RSaIT2_E,"x"
	.linkonce discard
	.p2align 4
	.globl	_ZSt24__uninitialized_fill_n_aIPSt6vectorIxSaIxEEmS2_S2_ET_S4_T0_RKT1_RSaIT2_E
	.def	_ZSt24__uninitialized_fill_n_aIPSt6vectorIxSaIxEEmS2_S2_ET_S4_T0_RKT1_RSaIT2_E;	.scl	2;	.type	32;	.endef
	.seh_proc	_ZSt24__uninitialized_fill_n_aIPSt6vectorIxSaIxEEmS2_S2_ET_S4_T0_RKT1_RSaIT2_E
_ZSt24__uninitialized_fill_n_aIPSt6vectorIxSaIxEEmS2_S2_ET_S4_T0_RKT1_RSaIT2_E:
.LFB9440:
	pushq	%rbp
	.seh_pushreg	%rbp
	movq	%rsp, %rbp
	.seh_setframe	%rbp, 0
	subq	$32, %rsp
	.seh_stackalloc	32
	.seh_endprologue
	movq	%rcx, 16(%rbp)
	movq	%rdx, 24(%rbp)
	movq	%r8, 32(%rbp)
	movq	%r9, 40(%rbp)
	movq	32(%rbp), %rdx
	movq	24(%rbp), %rax
	movq	%rdx, %r8
	movq	%rax, %rdx
	movq	16(%rbp), %rcx
	call	_ZSt20uninitialized_fill_nIPSt6vectorIxSaIxEEmS2_ET_S4_T0_RKT1_
	addq	$32, %rsp
	popq	%rbp
	ret
	.seh_endproc
	.section	.text$_ZSt8_DestroyIPSt6vectorIxSaIxEEEvT_S4_,"x"
	.linkonce discard
	.p2align 4
	.globl	_ZSt8_DestroyIPSt6vectorIxSaIxEEEvT_S4_
	.def	_ZSt8_DestroyIPSt6vectorIxSaIxEEEvT_S4_;	.scl	2;	.type	32;	.endef
	.seh_proc	_ZSt8_DestroyIPSt6vectorIxSaIxEEEvT_S4_
_ZSt8_DestroyIPSt6vectorIxSaIxEEEvT_S4_:
.LFB9441:
	pushq	%rbp
	.seh_pushreg	%rbp
	movq	%rsp, %rbp
	.seh_setframe	%rbp, 0
	subq	$32, %rsp
	.seh_stackalloc	32
	.seh_endprologue
	movq	%rcx, 16(%rbp)
	movq	%rdx, 24(%rbp)
	movq	24(%rbp), %rax
	movq	%rax, %rdx
	movq	16(%rbp), %rcx
	call	_ZNSt12_Destroy_auxILb0EE9__destroyIPSt6vectorIxSaIxEEEEvT_S6_
	nop
	addq	$32, %rsp
	popq	%rbp
	ret
	.seh_endproc
	.section	.text$_ZNKSt16initializer_listIxE4sizeEv,"x"
	.linkonce discard
	.align 2
	.p2align 4
	.globl	_ZNKSt16initializer_listIxE4sizeEv
	.def	_ZNKSt16initializer_listIxE4sizeEv;	.scl	2;	.type	32;	.endef
	.seh_proc	_ZNKSt16initializer_listIxE4sizeEv
_ZNKSt16initializer_listIxE4sizeEv:
.LFB9443:
	pushq	%rbp
	.seh_pushreg	%rbp
	movq	%rsp, %rbp
	.seh_setframe	%rbp, 0
	.seh_endprologue
	movq	%rcx, 16(%rbp)
	movq	16(%rbp), %rax
	movq	8(%rax), %rax
	popq	%rbp
	ret
	.seh_endproc
	.section	.text$_ZSt8distanceIPKxENSt15iterator_traitsIT_E15difference_typeES3_S3_,"x"
	.linkonce discard
	.p2align 4
	.globl	_ZSt8distanceIPKxENSt15iterator_traitsIT_E15difference_typeES3_S3_
	.def	_ZSt8distanceIPKxENSt15iterator_traitsIT_E15difference_typeES3_S3_;	.scl	2;	.type	32;	.endef
	.seh_proc	_ZSt8distanceIPKxENSt15iterator_traitsIT_E15difference_typeES3_S3_
_ZSt8distanceIPKxENSt15iterator_traitsIT_E15difference_typeES3_S3_:
.LFB9444:
	pushq	%rbp
	.seh_pushreg	%rbp
	pushq	%rbx
	.seh_pushreg	%rbx
	subq	$40, %rsp
	.seh_stackalloc	40
	leaq	128(%rsp), %rbp
	.seh_setframe	%rbp, 128
	.seh_endprologue
	movq	%rcx, -64(%rbp)
	movq	%rdx, -56(%rbp)
	leaq	-64(%rbp), %rcx
	call	_ZSt19__iterator_categoryIPKxENSt15iterator_traitsIT_E17iterator_categoryERKS3_
	movq	-64(%rbp), %rax
	movq	-56(%rbp), %rdx
	movl	%ebx, %r8d
	movq	%rax, %rcx
	call	_ZSt10__distanceIPKxENSt15iterator_traitsIT_E15difference_typeES3_S3_St26random_access_iterator_tag
	addq	$40, %rsp
	popq	%rbx
	popq	%rbp
	ret
	.seh_endproc
	.section	.text$_ZNKSt6vectorIxSaIxEE8capacityEv,"x"
	.linkonce discard
	.align 2
	.p2align 4
	.globl	_ZNKSt6vectorIxSaIxEE8capacityEv
	.def	_ZNKSt6vectorIxSaIxEE8capacityEv;	.scl	2;	.type	32;	.endef
	.seh_proc	_ZNKSt6vectorIxSaIxEE8capacityEv
_ZNKSt6vectorIxSaIxEE8capacityEv:
.LFB9445:
	pushq	%rbp
	.seh_pushreg	%rbp
	movq	%rsp, %rbp
	.seh_setframe	%rbp, 0
	.seh_endprologue
	movq	%rcx, 16(%rbp)
	movq	16(%rbp), %rax
	movq	16(%rax), %rdx
	movq	16(%rbp), %rax
	movq	(%rax), %rcx
	movq	%rdx, %rax
	subq	%rcx, %rax
	sarq	$3, %rax
	popq	%rbp
	ret
	.seh_endproc
	.section	.text$_ZNSt6vectorIxSaIxEE20_M_allocate_and_copyIPKxEEPxmT_S6_,"x"
	.linkonce discard
	.align 2
	.p2align 4
	.globl	_ZNSt6vectorIxSaIxEE20_M_allocate_and_copyIPKxEEPxmT_S6_
	.def	_ZNSt6vectorIxSaIxEE20_M_allocate_and_copyIPKxEEPxmT_S6_;	.scl	2;	.type	32;	.endef
	.seh_proc	_ZNSt6vectorIxSaIxEE20_M_allocate_and_copyIPKxEEPxmT_S6_
_ZNSt6vectorIxSaIxEE20_M_allocate_and_copyIPKxEEPxmT_S6_:
.LFB9446:
	pushq	%rbp
	.seh_pushreg	%rbp
	pushq	%rbx
	.seh_pushreg	%rbx
	subq	$56, %rsp
	.seh_stackalloc	56
	leaq	128(%rsp), %rbp
	.seh_setframe	%rbp, 128
	.seh_endprologue
	movq	%rcx, -48(%rbp)
	movq	%rdx, -40(%rbp)
	movq	%r8, -32(%rbp)
	movq	%r9, -24(%rbp)
	movq	-48(%rbp), %rax
	movq	-40(%rbp), %rdx
	movq	%rax, %rcx
.LEHB22:
	call	_ZNSt12_Vector_baseIxSaIxEE11_M_allocateEm
.LEHE22:
	movq	%rax, -88(%rbp)
	movq	-48(%rbp), %rax
	movq	%rax, %rcx
	call	_ZNSt12_Vector_baseIxSaIxEE19_M_get_Tp_allocatorEv
	movq	%rax, %rcx
	movq	-88(%rbp), %r8
	movq	-24(%rbp), %rdx
	movq	-32(%rbp), %rax
	movq	%rcx, %r9
	movq	%rax, %rcx
.LEHB23:
	call	_ZSt22__uninitialized_copy_aIPKxPxxET0_T_S4_S3_RSaIT1_E
.LEHE23:
	movq	-88(%rbp), %rax
	jmp	.L142
.L140:
	movq	%rax, %rcx
	call	__cxa_begin_catch
	movq	-48(%rbp), %rax
	movq	-40(%rbp), %rcx
	movq	-88(%rbp), %rdx
	movq	%rcx, %r8
	movq	%rax, %rcx
.LEHB24:
	call	_ZNSt12_Vector_baseIxSaIxEE13_M_deallocateEPxm
	call	__cxa_rethrow
.LEHE24:
.L141:
	movq	%rax, %rbx
	call	__cxa_end_catch
	movq	%rbx, %rax
	movq	%rax, %rcx
.LEHB25:
	call	_Unwind_Resume
.LEHE25:
.L142:
	addq	$56, %rsp
	popq	%rbx
	popq	%rbp
	ret
	.seh_handler	__gxx_personality_seh0, @unwind, @except
	.seh_handlerdata
	.align 4
.LLSDA9446:
	.byte	0xff
	.byte	0x9b
	.uleb128 .LLSDATT9446-.LLSDATTD9446
.LLSDATTD9446:
	.byte	0x1
	.uleb128 .LLSDACSE9446-.LLSDACSB9446
.LLSDACSB9446:
	.uleb128 .LEHB22-.LFB9446
	.uleb128 .LEHE22-.LEHB22
	.uleb128 0
	.uleb128 0
	.uleb128 .LEHB23-.LFB9446
	.uleb128 .LEHE23-.LEHB23
	.uleb128 .L140-.LFB9446
	.uleb128 0x1
	.uleb128 .LEHB24-.LFB9446
	.uleb128 .LEHE24-.LEHB24
	.uleb128 .L141-.LFB9446
	.uleb128 0
	.uleb128 .LEHB25-.LFB9446
	.uleb128 .LEHE25-.LEHB25
	.uleb128 0
	.uleb128 0
.LLSDACSE9446:
	.byte	0x1
	.byte	0
	.align 4
	.long	0

.LLSDATT9446:
	.section	.text$_ZNSt6vectorIxSaIxEE20_M_allocate_and_copyIPKxEEPxmT_S6_,"x"
	.linkonce discard
	.seh_endproc
	.section	.text$_ZNKSt6vectorIxSaIxEE4sizeEv,"x"
	.linkonce discard
	.align 2
	.p2align 4
	.globl	_ZNKSt6vectorIxSaIxEE4sizeEv
	.def	_ZNKSt6vectorIxSaIxEE4sizeEv;	.scl	2;	.type	32;	.endef
	.seh_proc	_ZNKSt6vectorIxSaIxEE4sizeEv
_ZNKSt6vectorIxSaIxEE4sizeEv:
.LFB9447:
	pushq	%rbp
	.seh_pushreg	%rbp
	movq	%rsp, %rbp
	.seh_setframe	%rbp, 0
	.seh_endprologue
	movq	%rcx, 16(%rbp)
	movq	16(%rbp), %rax
	movq	8(%rax), %rdx
	movq	16(%rbp), %rax
	movq	(%rax), %rcx
	movq	%rdx, %rax
	subq	%rcx, %rax
	sarq	$3, %rax
	popq	%rbp
	ret
	.seh_endproc
	.section	.text$_ZNSt6vectorIxSaIxEE15_M_erase_at_endEPx,"x"
	.linkonce discard
	.align 2
	.p2align 4
	.globl	_ZNSt6vectorIxSaIxEE15_M_erase_at_endEPx
	.def	_ZNSt6vectorIxSaIxEE15_M_erase_at_endEPx;	.scl	2;	.type	32;	.endef
	.seh_proc	_ZNSt6vectorIxSaIxEE15_M_erase_at_endEPx
_ZNSt6vectorIxSaIxEE15_M_erase_at_endEPx:
.LFB9448:
	pushq	%rbp
	.seh_pushreg	%rbp
	movq	%rsp, %rbp
	.seh_setframe	%rbp, 0
	subq	$48, %rsp
	.seh_stackalloc	48
	.seh_endprologue
	movq	%rcx, 16(%rbp)
	movq	%rdx, 24(%rbp)
	movq	16(%rbp), %rax
	movq	8(%rax), %rax
	subq	24(%rbp), %rax
	sarq	$3, %rax
	movq	%rax, -8(%rbp)
	cmpq	$0, -8(%rbp)
	je	.L147
	movq	16(%rbp), %rax
	movq	%rax, %rcx
	call	_ZNSt12_Vector_baseIxSaIxEE19_M_get_Tp_allocatorEv
	movq	%rax, %rcx
	movq	16(%rbp), %rax
	movq	8(%rax), %rdx
	movq	24(%rbp), %rax
	movq	%rcx, %r8
	movq	%rax, %rcx
	call	_ZSt8_DestroyIPxxEvT_S1_RSaIT0_E
	movq	16(%rbp), %rax
	movq	24(%rbp), %rdx
	movq	%rdx, 8(%rax)
.L147:
	nop
	addq	$48, %rsp
	popq	%rbp
	ret
	.seh_handler	__gxx_personality_seh0, @unwind, @except
	.seh_handlerdata
.LLSDA9448:
	.byte	0xff
	.byte	0xff
	.byte	0x1
	.uleb128 .LLSDACSE9448-.LLSDACSB9448
.LLSDACSB9448:
.LLSDACSE9448:
	.section	.text$_ZNSt6vectorIxSaIxEE15_M_erase_at_endEPx,"x"
	.linkonce discard
	.seh_endproc
	.section	.text$_ZSt4copyIPKxPxET0_T_S4_S3_,"x"
	.linkonce discard
	.p2align 4
	.globl	_ZSt4copyIPKxPxET0_T_S4_S3_
	.def	_ZSt4copyIPKxPxET0_T_S4_S3_;	.scl	2;	.type	32;	.endef
	.seh_proc	_ZSt4copyIPKxPxET0_T_S4_S3_
_ZSt4copyIPKxPxET0_T_S4_S3_:
.LFB9449:
	pushq	%rbp
	.seh_pushreg	%rbp
	pushq	%rbx
	.seh_pushreg	%rbx
	subq	$40, %rsp
	.seh_stackalloc	40
	leaq	128(%rsp), %rbp
	.seh_setframe	%rbp, 128
	.seh_endprologue
	movq	%rcx, -64(%rbp)
	movq	%rdx, -56(%rbp)
	movq	%r8, -48(%rbp)
	movq	-56(%rbp), %rax
	movq	%rax, %rcx
	call	_ZSt12__miter_baseIPKxET_S2_
	movq	%rax, %rbx
	movq	-64(%rbp), %rcx
	call	_ZSt12__miter_baseIPKxET_S2_
	movq	-48(%rbp), %rdx
	movq	%rdx, %r8
	movq	%rbx, %rdx
	movq	%rax, %rcx
	call	_ZSt13__copy_move_aILb0EPKxPxET1_T0_S4_S3_
	addq	$40, %rsp
	popq	%rbx
	popq	%rbp
	ret
	.seh_endproc
	.section	.text$_ZSt7advanceIPKxmEvRT_T0_,"x"
	.linkonce discard
	.p2align 4
	.globl	_ZSt7advanceIPKxmEvRT_T0_
	.def	_ZSt7advanceIPKxmEvRT_T0_;	.scl	2;	.type	32;	.endef
	.seh_proc	_ZSt7advanceIPKxmEvRT_T0_
_ZSt7advanceIPKxmEvRT_T0_:
.LFB9450:
	pushq	%rbp
	.seh_pushreg	%rbp
	pushq	%rbx
	.seh_pushreg	%rbx
	subq	$56, %rsp
	.seh_stackalloc	56
	leaq	128(%rsp), %rbp
	.seh_setframe	%rbp, 128
	.seh_endprologue
	movq	%rcx, -48(%rbp)
	movq	%rdx, -40(%rbp)
	movq	-40(%rbp), %rax
	movq	%rax, -88(%rbp)
	movq	-48(%rbp), %rcx
	call	_ZSt19__iterator_categoryIPKxENSt15iterator_traitsIT_E17iterator_categoryERKS3_
	movq	-88(%rbp), %rax
	movl	%ebx, %r8d
	movq	%rax, %rdx
	movq	-48(%rbp), %rcx
	call	_ZSt9__advanceIPKxlEvRT_T0_St26random_access_iterator_tag
	nop
	addq	$56, %rsp
	popq	%rbx
	popq	%rbp
	ret
	.seh_endproc
	.section	.text$_ZSt22__uninitialized_copy_aIPKxPxxET0_T_S4_S3_RSaIT1_E,"x"
	.linkonce discard
	.p2align 4
	.globl	_ZSt22__uninitialized_copy_aIPKxPxxET0_T_S4_S3_RSaIT1_E
	.def	_ZSt22__uninitialized_copy_aIPKxPxxET0_T_S4_S3_RSaIT1_E;	.scl	2;	.type	32;	.endef
	.seh_proc	_ZSt22__uninitialized_copy_aIPKxPxxET0_T_S4_S3_RSaIT1_E
_ZSt22__uninitialized_copy_aIPKxPxxET0_T_S4_S3_RSaIT1_E:
.LFB9451:
	pushq	%rbp
	.seh_pushreg	%rbp
	movq	%rsp, %rbp
	.seh_setframe	%rbp, 0
	subq	$32, %rsp
	.seh_stackalloc	32
	.seh_endprologue
	movq	%rcx, 16(%rbp)
	movq	%rdx, 24(%rbp)
	movq	%r8, 32(%rbp)
	movq	%r9, 40(%rbp)
	movq	32(%rbp), %rdx
	movq	24(%rbp), %rax
	movq	%rdx, %r8
	movq	%rax, %rdx
	movq	16(%rbp), %rcx
	call	_ZSt18uninitialized_copyIPKxPxET0_T_S4_S3_
	addq	$32, %rsp
	popq	%rbp
	ret
	.seh_endproc
	.section	.text$_ZNSt16allocator_traitsISaIxEE8max_sizeERKS0_,"x"
	.linkonce discard
	.p2align 4
	.globl	_ZNSt16allocator_traitsISaIxEE8max_sizeERKS0_
	.def	_ZNSt16allocator_traitsISaIxEE8max_sizeERKS0_;	.scl	2;	.type	32;	.endef
	.seh_proc	_ZNSt16allocator_traitsISaIxEE8max_sizeERKS0_
_ZNSt16allocator_traitsISaIxEE8max_sizeERKS0_:
.LFB9522:
	pushq	%rbp
	.seh_pushreg	%rbp
	movq	%rsp, %rbp
	.seh_setframe	%rbp, 0
	subq	$32, %rsp
	.seh_stackalloc	32
	.seh_endprologue
	movq	%rcx, 16(%rbp)
	movq	16(%rbp), %rcx
	call	_ZNK9__gnu_cxx13new_allocatorIxE8max_sizeEv
	addq	$32, %rsp
	popq	%rbp
	ret
	.seh_endproc
	.section	.text$_ZN9__gnu_cxx13new_allocatorIxEC2ERKS1_,"x"
	.linkonce discard
	.align 2
	.p2align 4
	.globl	_ZN9__gnu_cxx13new_allocatorIxEC2ERKS1_
	.def	_ZN9__gnu_cxx13new_allocatorIxEC2ERKS1_;	.scl	2;	.type	32;	.endef
	.seh_proc	_ZN9__gnu_cxx13new_allocatorIxEC2ERKS1_
_ZN9__gnu_cxx13new_allocatorIxEC2ERKS1_:
.LFB9524:
	pushq	%rbp
	.seh_pushreg	%rbp
	movq	%rsp, %rbp
	.seh_setframe	%rbp, 0
	.seh_endprologue
	movq	%rcx, 16(%rbp)
	movq	%rdx, 24(%rbp)
	nop
	popq	%rbp
	ret
	.seh_endproc
	.section	.text$_ZNSt12_Vector_baseIxSaIxEE17_Vector_impl_dataC2Ev,"x"
	.linkonce discard
	.align 2
	.p2align 4
	.globl	_ZNSt12_Vector_baseIxSaIxEE17_Vector_impl_dataC2Ev
	.def	_ZNSt12_Vector_baseIxSaIxEE17_Vector_impl_dataC2Ev;	.scl	2;	.type	32;	.endef
	.seh_proc	_ZNSt12_Vector_baseIxSaIxEE17_Vector_impl_dataC2Ev
_ZNSt12_Vector_baseIxSaIxEE17_Vector_impl_dataC2Ev:
.LFB9527:
	pushq	%rbp
	.seh_pushreg	%rbp
	movq	%rsp, %rbp
	.seh_setframe	%rbp, 0
	.seh_endprologue
	movq	%rcx, 16(%rbp)
	movq	16(%rbp), %rax
	movq	$0, (%rax)
	movq	16(%rbp), %rax
	movq	$0, 8(%rax)
	movq	16(%rbp), %rax
	movq	$0, 16(%rax)
	nop
	popq	%rbp
	ret
	.seh_endproc
	.section	.text$_ZNSt12_Vector_baseIxSaIxEE11_M_allocateEm,"x"
	.linkonce discard
	.align 2
	.p2align 4
	.globl	_ZNSt12_Vector_baseIxSaIxEE11_M_allocateEm
	.def	_ZNSt12_Vector_baseIxSaIxEE11_M_allocateEm;	.scl	2;	.type	32;	.endef
	.seh_proc	_ZNSt12_Vector_baseIxSaIxEE11_M_allocateEm
_ZNSt12_Vector_baseIxSaIxEE11_M_allocateEm:
.LFB9529:
	pushq	%rbp
	.seh_pushreg	%rbp
	movq	%rsp, %rbp
	.seh_setframe	%rbp, 0
	subq	$32, %rsp
	.seh_stackalloc	32
	.seh_endprologue
	movq	%rcx, 16(%rbp)
	movq	%rdx, 24(%rbp)
	cmpq	$0, 24(%rbp)
	je	.L158
	movq	16(%rbp), %rax
	movq	24(%rbp), %rdx
	movq	%rax, %rcx
	call	_ZNSt16allocator_traitsISaIxEE8allocateERS0_m
	jmp	.L160
.L158:
	movl	$0, %eax
.L160:
	addq	$32, %rsp
	popq	%rbp
	ret
	.seh_endproc
	.section	.text$_ZNSt16allocator_traitsISaIxEE10deallocateERS0_Pxm,"x"
	.linkonce discard
	.p2align 4
	.globl	_ZNSt16allocator_traitsISaIxEE10deallocateERS0_Pxm
	.def	_ZNSt16allocator_traitsISaIxEE10deallocateERS0_Pxm;	.scl	2;	.type	32;	.endef
	.seh_proc	_ZNSt16allocator_traitsISaIxEE10deallocateERS0_Pxm
_ZNSt16allocator_traitsISaIxEE10deallocateERS0_Pxm:
.LFB9530:
	pushq	%rbp
	.seh_pushreg	%rbp
	movq	%rsp, %rbp
	.seh_setframe	%rbp, 0
	subq	$32, %rsp
	.seh_stackalloc	32
	.seh_endprologue
	movq	%rcx, 16(%rbp)
	movq	%rdx, 24(%rbp)
	movq	%r8, 32(%rbp)
	movq	32(%rbp), %rdx
	movq	24(%rbp), %rax
	movq	%rdx, %r8
	movq	%rax, %rdx
	movq	16(%rbp), %rcx
	call	_ZN9__gnu_cxx13new_allocatorIxE10deallocateEPxm
	nop
	addq	$32, %rsp
	popq	%rbp
	ret
	.seh_endproc
	.section	.text$_ZSt25__uninitialized_default_nIPxmET_S1_T0_,"x"
	.linkonce discard
	.p2align 4
	.globl	_ZSt25__uninitialized_default_nIPxmET_S1_T0_
	.def	_ZSt25__uninitialized_default_nIPxmET_S1_T0_;	.scl	2;	.type	32;	.endef
	.seh_proc	_ZSt25__uninitialized_default_nIPxmET_S1_T0_
_ZSt25__uninitialized_default_nIPxmET_S1_T0_:
.LFB9531:
	pushq	%rbp
	.seh_pushreg	%rbp
	movq	%rsp, %rbp
	.seh_setframe	%rbp, 0
	subq	$48, %rsp
	.seh_stackalloc	48
	.seh_endprologue
	movq	%rcx, 16(%rbp)
	movq	%rdx, 24(%rbp)
	movb	$1, -1(%rbp)
	movq	24(%rbp), %rax
	movq	%rax, %rdx
	movq	16(%rbp), %rcx
	call	_ZNSt27__uninitialized_default_n_1ILb1EE18__uninit_default_nIPxmEET_S3_T0_
	addq	$48, %rsp
	popq	%rbp
	ret
	.seh_endproc
	.section	.text$_ZNSt12_Destroy_auxILb1EE9__destroyIPxEEvT_S3_,"x"
	.linkonce discard
	.p2align 4
	.globl	_ZNSt12_Destroy_auxILb1EE9__destroyIPxEEvT_S3_
	.def	_ZNSt12_Destroy_auxILb1EE9__destroyIPxEEvT_S3_;	.scl	2;	.type	32;	.endef
	.seh_proc	_ZNSt12_Destroy_auxILb1EE9__destroyIPxEEvT_S3_
_ZNSt12_Destroy_auxILb1EE9__destroyIPxEEvT_S3_:
.LFB9532:
	pushq	%rbp
	.seh_pushreg	%rbp
	movq	%rsp, %rbp
	.seh_setframe	%rbp, 0
	.seh_endprologue
	movq	%rcx, 16(%rbp)
	movq	%rdx, 24(%rbp)
	nop
	popq	%rbp
	ret
	.seh_endproc
	.section	.text$_ZSt20uninitialized_fill_nIPxmxET_S1_T0_RKT1_,"x"
	.linkonce discard
	.p2align 4
	.globl	_ZSt20uninitialized_fill_nIPxmxET_S1_T0_RKT1_
	.def	_ZSt20uninitialized_fill_nIPxmxET_S1_T0_RKT1_;	.scl	2;	.type	32;	.endef
	.seh_proc	_ZSt20uninitialized_fill_nIPxmxET_S1_T0_RKT1_
_ZSt20uninitialized_fill_nIPxmxET_S1_T0_RKT1_:
.LFB9533:
	pushq	%rbp
	.seh_pushreg	%rbp
	movq	%rsp, %rbp
	.seh_setframe	%rbp, 0
	subq	$48, %rsp
	.seh_stackalloc	48
	.seh_endprologue
	movq	%rcx, 16(%rbp)
	movq	%rdx, 24(%rbp)
	movq	%r8, 32(%rbp)
	movb	$1, -1(%rbp)
	movq	32(%rbp), %rdx
	movq	24(%rbp), %rax
	movq	%rdx, %r8
	movq	%rax, %rdx
	movq	16(%rbp), %rcx
	call	_ZNSt22__uninitialized_fill_nILb1EE15__uninit_fill_nIPxmxEET_S3_T0_RKT1_
	addq	$48, %rsp
	popq	%rbp
	ret
	.seh_endproc
	.section	.text$_ZNSt16allocator_traitsISaISt6vectorIxSaIxEEEE8max_sizeERKS3_,"x"
	.linkonce discard
	.p2align 4
	.globl	_ZNSt16allocator_traitsISaISt6vectorIxSaIxEEEE8max_sizeERKS3_
	.def	_ZNSt16allocator_traitsISaISt6vectorIxSaIxEEEE8max_sizeERKS3_;	.scl	2;	.type	32;	.endef
	.seh_proc	_ZNSt16allocator_traitsISaISt6vectorIxSaIxEEEE8max_sizeERKS3_
_ZNSt16allocator_traitsISaISt6vectorIxSaIxEEEE8max_sizeERKS3_:
.LFB9534:
	pushq	%rbp
	.seh_pushreg	%rbp
	movq	%rsp, %rbp
	.seh_setframe	%rbp, 0
	subq	$32, %rsp
	.seh_stackalloc	32
	.seh_endprologue
	movq	%rcx, 16(%rbp)
	movq	16(%rbp), %rcx
	call	_ZNK9__gnu_cxx13new_allocatorISt6vectorIxSaIxEEE8max_sizeEv
	addq	$32, %rsp
	popq	%rbp
	ret
	.seh_endproc
	.section	.text$_ZN9__gnu_cxx13new_allocatorISt6vectorIxSaIxEEEC2ERKS4_,"x"
	.linkonce discard
	.align 2
	.p2align 4
	.globl	_ZN9__gnu_cxx13new_allocatorISt6vectorIxSaIxEEEC2ERKS4_
	.def	_ZN9__gnu_cxx13new_allocatorISt6vectorIxSaIxEEEC2ERKS4_;	.scl	2;	.type	32;	.endef
	.seh_proc	_ZN9__gnu_cxx13new_allocatorISt6vectorIxSaIxEEEC2ERKS4_
_ZN9__gnu_cxx13new_allocatorISt6vectorIxSaIxEEEC2ERKS4_:
.LFB9536:
	pushq	%rbp
	.seh_pushreg	%rbp
	movq	%rsp, %rbp
	.seh_setframe	%rbp, 0
	.seh_endprologue
	movq	%rcx, 16(%rbp)
	movq	%rdx, 24(%rbp)
	nop
	popq	%rbp
	ret
	.seh_endproc
	.section	.text$_ZNSt12_Vector_baseISt6vectorIxSaIxEESaIS2_EE17_Vector_impl_dataC2Ev,"x"
	.linkonce discard
	.align 2
	.p2align 4
	.globl	_ZNSt12_Vector_baseISt6vectorIxSaIxEESaIS2_EE17_Vector_impl_dataC2Ev
	.def	_ZNSt12_Vector_baseISt6vectorIxSaIxEESaIS2_EE17_Vector_impl_dataC2Ev;	.scl	2;	.type	32;	.endef
	.seh_proc	_ZNSt12_Vector_baseISt6vectorIxSaIxEESaIS2_EE17_Vector_impl_dataC2Ev
_ZNSt12_Vector_baseISt6vectorIxSaIxEESaIS2_EE17_Vector_impl_dataC2Ev:
.LFB9539:
	pushq	%rbp
	.seh_pushreg	%rbp
	movq	%rsp, %rbp
	.seh_setframe	%rbp, 0
	.seh_endprologue
	movq	%rcx, 16(%rbp)
	movq	16(%rbp), %rax
	movq	$0, (%rax)
	movq	16(%rbp), %rax
	movq	$0, 8(%rax)
	movq	16(%rbp), %rax
	movq	$0, 16(%rax)
	nop
	popq	%rbp
	ret
	.seh_endproc
	.section	.text$_ZNSt12_Vector_baseISt6vectorIxSaIxEESaIS2_EE11_M_allocateEm,"x"
	.linkonce discard
	.align 2
	.p2align 4
	.globl	_ZNSt12_Vector_baseISt6vectorIxSaIxEESaIS2_EE11_M_allocateEm
	.def	_ZNSt12_Vector_baseISt6vectorIxSaIxEESaIS2_EE11_M_allocateEm;	.scl	2;	.type	32;	.endef
	.seh_proc	_ZNSt12_Vector_baseISt6vectorIxSaIxEESaIS2_EE11_M_allocateEm
_ZNSt12_Vector_baseISt6vectorIxSaIxEESaIS2_EE11_M_allocateEm:
.LFB9541:
	pushq	%rbp
	.seh_pushreg	%rbp
	movq	%rsp, %rbp
	.seh_setframe	%rbp, 0
	subq	$32, %rsp
	.seh_stackalloc	32
	.seh_endprologue
	movq	%rcx, 16(%rbp)
	movq	%rdx, 24(%rbp)
	cmpq	$0, 24(%rbp)
	je	.L172
	movq	16(%rbp), %rax
	movq	24(%rbp), %rdx
	movq	%rax, %rcx
	call	_ZNSt16allocator_traitsISaISt6vectorIxSaIxEEEE8allocateERS3_m
	jmp	.L174
.L172:
	movl	$0, %eax
.L174:
	addq	$32, %rsp
	popq	%rbp
	ret
	.seh_endproc
	.section	.text$_ZNSt16allocator_traitsISaISt6vectorIxSaIxEEEE10deallocateERS3_PS2_m,"x"
	.linkonce discard
	.p2align 4
	.globl	_ZNSt16allocator_traitsISaISt6vectorIxSaIxEEEE10deallocateERS3_PS2_m
	.def	_ZNSt16allocator_traitsISaISt6vectorIxSaIxEEEE10deallocateERS3_PS2_m;	.scl	2;	.type	32;	.endef
	.seh_proc	_ZNSt16allocator_traitsISaISt6vectorIxSaIxEEEE10deallocateERS3_PS2_m
_ZNSt16allocator_traitsISaISt6vectorIxSaIxEEEE10deallocateERS3_PS2_m:
.LFB9542:
	pushq	%rbp
	.seh_pushreg	%rbp
	movq	%rsp, %rbp
	.seh_setframe	%rbp, 0
	subq	$32, %rsp
	.seh_stackalloc	32
	.seh_endprologue
	movq	%rcx, 16(%rbp)
	movq	%rdx, 24(%rbp)
	movq	%r8, 32(%rbp)
	movq	32(%rbp), %rdx
	movq	24(%rbp), %rax
	movq	%rdx, %r8
	movq	%rax, %rdx
	movq	16(%rbp), %rcx
	call	_ZN9__gnu_cxx13new_allocatorISt6vectorIxSaIxEEE10deallocateEPS3_m
	nop
	addq	$32, %rsp
	popq	%rbp
	ret
	.seh_endproc
	.section	.text$_ZSt20uninitialized_fill_nIPSt6vectorIxSaIxEEmS2_ET_S4_T0_RKT1_,"x"
	.linkonce discard
	.p2align 4
	.globl	_ZSt20uninitialized_fill_nIPSt6vectorIxSaIxEEmS2_ET_S4_T0_RKT1_
	.def	_ZSt20uninitialized_fill_nIPSt6vectorIxSaIxEEmS2_ET_S4_T0_RKT1_;	.scl	2;	.type	32;	.endef
	.seh_proc	_ZSt20uninitialized_fill_nIPSt6vectorIxSaIxEEmS2_ET_S4_T0_RKT1_
_ZSt20uninitialized_fill_nIPSt6vectorIxSaIxEEmS2_ET_S4_T0_RKT1_:
.LFB9543:
	pushq	%rbp
	.seh_pushreg	%rbp
	movq	%rsp, %rbp
	.seh_setframe	%rbp, 0
	subq	$48, %rsp
	.seh_stackalloc	48
	.seh_endprologue
	movq	%rcx, 16(%rbp)
	movq	%rdx, 24(%rbp)
	movq	%r8, 32(%rbp)
	movb	$1, -1(%rbp)
	movq	32(%rbp), %rdx
	movq	24(%rbp), %rax
	movq	%rdx, %r8
	movq	%rax, %rdx
	movq	16(%rbp), %rcx
	call	_ZNSt22__uninitialized_fill_nILb0EE15__uninit_fill_nIPSt6vectorIxSaIxEEmS4_EET_S6_T0_RKT1_
	addq	$48, %rsp
	popq	%rbp
	ret
	.seh_endproc
	.section	.text$_ZNSt12_Destroy_auxILb0EE9__destroyIPSt6vectorIxSaIxEEEEvT_S6_,"x"
	.linkonce discard
	.p2align 4
	.globl	_ZNSt12_Destroy_auxILb0EE9__destroyIPSt6vectorIxSaIxEEEEvT_S6_
	.def	_ZNSt12_Destroy_auxILb0EE9__destroyIPSt6vectorIxSaIxEEEEvT_S6_;	.scl	2;	.type	32;	.endef
	.seh_proc	_ZNSt12_Destroy_auxILb0EE9__destroyIPSt6vectorIxSaIxEEEEvT_S6_
_ZNSt12_Destroy_auxILb0EE9__destroyIPSt6vectorIxSaIxEEEEvT_S6_:
.LFB9544:
	pushq	%rbp
	.seh_pushreg	%rbp
	movq	%rsp, %rbp
	.seh_setframe	%rbp, 0
	subq	$32, %rsp
	.seh_stackalloc	32
	.seh_endprologue
	movq	%rcx, 16(%rbp)
	movq	%rdx, 24(%rbp)
.L180:
	movq	16(%rbp), %rax
	cmpq	24(%rbp), %rax
	je	.L181
	movq	16(%rbp), %rcx
	call	_ZSt11__addressofISt6vectorIxSaIxEEEPT_RS3_
	movq	%rax, %rcx
	call	_ZSt8_DestroyISt6vectorIxSaIxEEEvPT_
	addq	$24, 16(%rbp)
	jmp	.L180
.L181:
	nop
	addq	$32, %rsp
	popq	%rbp
	ret
	.seh_endproc
	.section	.text$_ZSt19__iterator_categoryIPKxENSt15iterator_traitsIT_E17iterator_categoryERKS3_,"x"
	.linkonce discard
	.p2align 4
	.globl	_ZSt19__iterator_categoryIPKxENSt15iterator_traitsIT_E17iterator_categoryERKS3_
	.def	_ZSt19__iterator_categoryIPKxENSt15iterator_traitsIT_E17iterator_categoryERKS3_;	.scl	2;	.type	32;	.endef
	.seh_proc	_ZSt19__iterator_categoryIPKxENSt15iterator_traitsIT_E17iterator_categoryERKS3_
_ZSt19__iterator_categoryIPKxENSt15iterator_traitsIT_E17iterator_categoryERKS3_:
.LFB9545:
	pushq	%rbp
	.seh_pushreg	%rbp
	movq	%rsp, %rbp
	.seh_setframe	%rbp, 0
	.seh_endprologue
	movq	%rcx, 16(%rbp)
	nop
	popq	%rbp
	ret
	.seh_endproc
	.section	.text$_ZSt10__distanceIPKxENSt15iterator_traitsIT_E15difference_typeES3_S3_St26random_access_iterator_tag,"x"
	.linkonce discard
	.p2align 4
	.globl	_ZSt10__distanceIPKxENSt15iterator_traitsIT_E15difference_typeES3_S3_St26random_access_iterator_tag
	.def	_ZSt10__distanceIPKxENSt15iterator_traitsIT_E15difference_typeES3_S3_St26random_access_iterator_tag;	.scl	2;	.type	32;	.endef
	.seh_proc	_ZSt10__distanceIPKxENSt15iterator_traitsIT_E15difference_typeES3_S3_St26random_access_iterator_tag
_ZSt10__distanceIPKxENSt15iterator_traitsIT_E15difference_typeES3_S3_St26random_access_iterator_tag:
.LFB9546:
	pushq	%rbp
	.seh_pushreg	%rbp
	movq	%rsp, %rbp
	.seh_setframe	%rbp, 0
	.seh_endprologue
	movq	%rcx, 16(%rbp)
	movq	%rdx, 24(%rbp)
	movq	24(%rbp), %rax
	subq	16(%rbp), %rax
	sarq	$3, %rax
	popq	%rbp
	ret
	.seh_endproc
	.section	.text$_ZSt12__miter_baseIPKxET_S2_,"x"
	.linkonce discard
	.p2align 4
	.globl	_ZSt12__miter_baseIPKxET_S2_
	.def	_ZSt12__miter_baseIPKxET_S2_;	.scl	2;	.type	32;	.endef
	.seh_proc	_ZSt12__miter_baseIPKxET_S2_
_ZSt12__miter_baseIPKxET_S2_:
.LFB9547:
	pushq	%rbp
	.seh_pushreg	%rbp
	movq	%rsp, %rbp
	.seh_setframe	%rbp, 0
	.seh_endprologue
	movq	%rcx, 16(%rbp)
	movq	16(%rbp), %rax
	popq	%rbp
	ret
	.seh_endproc
	.section	.text$_ZSt13__copy_move_aILb0EPKxPxET1_T0_S4_S3_,"x"
	.linkonce discard
	.p2align 4
	.globl	_ZSt13__copy_move_aILb0EPKxPxET1_T0_S4_S3_
	.def	_ZSt13__copy_move_aILb0EPKxPxET1_T0_S4_S3_;	.scl	2;	.type	32;	.endef
	.seh_proc	_ZSt13__copy_move_aILb0EPKxPxET1_T0_S4_S3_
_ZSt13__copy_move_aILb0EPKxPxET1_T0_S4_S3_:
.LFB9548:
	pushq	%rbp
	.seh_pushreg	%rbp
	pushq	%rsi
	.seh_pushreg	%rsi
	pushq	%rbx
	.seh_pushreg	%rbx
	movq	%rsp, %rbp
	.seh_setframe	%rbp, 0
	subq	$32, %rsp
	.seh_stackalloc	32
	.seh_endprologue
	movq	%rcx, 32(%rbp)
	movq	%rdx, 40(%rbp)
	movq	%r8, 48(%rbp)
	movq	48(%rbp), %rax
	movq	%rax, %rcx
	call	_ZSt12__niter_baseIPxET_S1_
	movq	%rax, %rsi
	movq	40(%rbp), %rax
	movq	%rax, %rcx
	call	_ZSt12__niter_baseIPKxET_S2_
	movq	%rax, %rbx
	movq	32(%rbp), %rcx
	call	_ZSt12__niter_baseIPKxET_S2_
	movq	%rsi, %r8
	movq	%rbx, %rdx
	movq	%rax, %rcx
	call	_ZSt14__copy_move_a1ILb0EPKxPxET1_T0_S4_S3_
	movq	%rax, %rdx
	leaq	48(%rbp), %rax
	movq	%rax, %rcx
	call	_ZSt12__niter_wrapIPxET_RKS1_S1_
	addq	$32, %rsp
	popq	%rbx
	popq	%rsi
	popq	%rbp
	ret
	.seh_endproc
	.section	.text$_ZSt9__advanceIPKxlEvRT_T0_St26random_access_iterator_tag,"x"
	.linkonce discard
	.p2align 4
	.globl	_ZSt9__advanceIPKxlEvRT_T0_St26random_access_iterator_tag
	.def	_ZSt9__advanceIPKxlEvRT_T0_St26random_access_iterator_tag;	.scl	2;	.type	32;	.endef
	.seh_proc	_ZSt9__advanceIPKxlEvRT_T0_St26random_access_iterator_tag
_ZSt9__advanceIPKxlEvRT_T0_St26random_access_iterator_tag:
.LFB9551:
	pushq	%rbp
	.seh_pushreg	%rbp
	movq	%rsp, %rbp
	.seh_setframe	%rbp, 0
	.seh_endprologue
	movq	%rcx, 16(%rbp)
	movq	%rdx, 24(%rbp)
	movq	16(%rbp), %rax
	movq	(%rax), %rdx
	movq	24(%rbp), %rax
	salq	$3, %rax
	addq	%rax, %rdx
	movq	16(%rbp), %rax
	movq	%rdx, (%rax)
	nop
	popq	%rbp
	ret
	.seh_endproc
	.section	.text$_ZSt18uninitialized_copyIPKxPxET0_T_S4_S3_,"x"
	.linkonce discard
	.p2align 4
	.globl	_ZSt18uninitialized_copyIPKxPxET0_T_S4_S3_
	.def	_ZSt18uninitialized_copyIPKxPxET0_T_S4_S3_;	.scl	2;	.type	32;	.endef
	.seh_proc	_ZSt18uninitialized_copyIPKxPxET0_T_S4_S3_
_ZSt18uninitialized_copyIPKxPxET0_T_S4_S3_:
.LFB9552:
	pushq	%rbp
	.seh_pushreg	%rbp
	movq	%rsp, %rbp
	.seh_setframe	%rbp, 0
	subq	$48, %rsp
	.seh_stackalloc	48
	.seh_endprologue
	movq	%rcx, 16(%rbp)
	movq	%rdx, 24(%rbp)
	movq	%r8, 32(%rbp)
	movb	$1, -1(%rbp)
	movq	32(%rbp), %rdx
	movq	24(%rbp), %rax
	movq	%rdx, %r8
	movq	%rax, %rdx
	movq	16(%rbp), %rcx
	call	_ZNSt20__uninitialized_copyILb1EE13__uninit_copyIPKxPxEET0_T_S6_S5_
	addq	$48, %rsp
	popq	%rbp
	ret
	.seh_endproc
	.section	.text$_ZNK9__gnu_cxx13new_allocatorIxE8max_sizeEv,"x"
	.linkonce discard
	.align 2
	.p2align 4
	.globl	_ZNK9__gnu_cxx13new_allocatorIxE8max_sizeEv
	.def	_ZNK9__gnu_cxx13new_allocatorIxE8max_sizeEv;	.scl	2;	.type	32;	.endef
	.seh_proc	_ZNK9__gnu_cxx13new_allocatorIxE8max_sizeEv
_ZNK9__gnu_cxx13new_allocatorIxE8max_sizeEv:
.LFB9601:
	pushq	%rbp
	.seh_pushreg	%rbp
	movq	%rsp, %rbp
	.seh_setframe	%rbp, 0
	subq	$32, %rsp
	.seh_stackalloc	32
	.seh_endprologue
	movq	%rcx, 16(%rbp)
	movq	16(%rbp), %rcx
	call	_ZNK9__gnu_cxx13new_allocatorIxE11_M_max_sizeEv
	addq	$32, %rsp
	popq	%rbp
	ret
	.seh_endproc
	.section	.text$_ZNSt16allocator_traitsISaIxEE8allocateERS0_m,"x"
	.linkonce discard
	.p2align 4
	.globl	_ZNSt16allocator_traitsISaIxEE8allocateERS0_m
	.def	_ZNSt16allocator_traitsISaIxEE8allocateERS0_m;	.scl	2;	.type	32;	.endef
	.seh_proc	_ZNSt16allocator_traitsISaIxEE8allocateERS0_m
_ZNSt16allocator_traitsISaIxEE8allocateERS0_m:
.LFB9602:
	pushq	%rbp
	.seh_pushreg	%rbp
	movq	%rsp, %rbp
	.seh_setframe	%rbp, 0
	subq	$32, %rsp
	.seh_stackalloc	32
	.seh_endprologue
	movq	%rcx, 16(%rbp)
	movq	%rdx, 24(%rbp)
	movq	24(%rbp), %rax
	movl	$0, %r8d
	movq	%rax, %rdx
	movq	16(%rbp), %rcx
	call	_ZN9__gnu_cxx13new_allocatorIxE8allocateEmPKv
	addq	$32, %rsp
	popq	%rbp
	ret
	.seh_endproc
	.section	.text$_ZN9__gnu_cxx13new_allocatorIxE10deallocateEPxm,"x"
	.linkonce discard
	.align 2
	.p2align 4
	.globl	_ZN9__gnu_cxx13new_allocatorIxE10deallocateEPxm
	.def	_ZN9__gnu_cxx13new_allocatorIxE10deallocateEPxm;	.scl	2;	.type	32;	.endef
	.seh_proc	_ZN9__gnu_cxx13new_allocatorIxE10deallocateEPxm
_ZN9__gnu_cxx13new_allocatorIxE10deallocateEPxm:
.LFB9603:
	pushq	%rbp
	.seh_pushreg	%rbp
	movq	%rsp, %rbp
	.seh_setframe	%rbp, 0
	subq	$32, %rsp
	.seh_stackalloc	32
	.seh_endprologue
	movq	%rcx, 16(%rbp)
	movq	%rdx, 24(%rbp)
	movq	%r8, 32(%rbp)
	movq	32(%rbp), %rax
	leaq	0(,%rax,8), %rdx
	movq	24(%rbp), %rax
	movq	%rax, %rcx
	call	_ZdlPvm
	nop
	addq	$32, %rsp
	popq	%rbp
	ret
	.seh_endproc
	.section	.text$_ZNSt27__uninitialized_default_n_1ILb1EE18__uninit_default_nIPxmEET_S3_T0_,"x"
	.linkonce discard
	.p2align 4
	.globl	_ZNSt27__uninitialized_default_n_1ILb1EE18__uninit_default_nIPxmEET_S3_T0_
	.def	_ZNSt27__uninitialized_default_n_1ILb1EE18__uninit_default_nIPxmEET_S3_T0_;	.scl	2;	.type	32;	.endef
	.seh_proc	_ZNSt27__uninitialized_default_n_1ILb1EE18__uninit_default_nIPxmEET_S3_T0_
_ZNSt27__uninitialized_default_n_1ILb1EE18__uninit_default_nIPxmEET_S3_T0_:
.LFB9604:
	pushq	%rbp
	.seh_pushreg	%rbp
	movq	%rsp, %rbp
	.seh_setframe	%rbp, 0
	subq	$48, %rsp
	.seh_stackalloc	48
	.seh_endprologue
	movq	%rcx, 16(%rbp)
	movq	%rdx, 24(%rbp)
	movq	$0, -8(%rbp)
	leaq	-8(%rbp), %rdx
	movq	24(%rbp), %rax
	movq	%rdx, %r8
	movq	%rax, %rdx
	movq	16(%rbp), %rcx
	call	_ZSt6fill_nIPxmxET_S1_T0_RKT1_
	addq	$48, %rsp
	popq	%rbp
	ret
	.seh_endproc
	.section	.text$_ZNSt22__uninitialized_fill_nILb1EE15__uninit_fill_nIPxmxEET_S3_T0_RKT1_,"x"
	.linkonce discard
	.p2align 4
	.globl	_ZNSt22__uninitialized_fill_nILb1EE15__uninit_fill_nIPxmxEET_S3_T0_RKT1_
	.def	_ZNSt22__uninitialized_fill_nILb1EE15__uninit_fill_nIPxmxEET_S3_T0_RKT1_;	.scl	2;	.type	32;	.endef
	.seh_proc	_ZNSt22__uninitialized_fill_nILb1EE15__uninit_fill_nIPxmxEET_S3_T0_RKT1_
_ZNSt22__uninitialized_fill_nILb1EE15__uninit_fill_nIPxmxEET_S3_T0_RKT1_:
.LFB9605:
	pushq	%rbp
	.seh_pushreg	%rbp
	movq	%rsp, %rbp
	.seh_setframe	%rbp, 0
	subq	$32, %rsp
	.seh_stackalloc	32
	.seh_endprologue
	movq	%rcx, 16(%rbp)
	movq	%rdx, 24(%rbp)
	movq	%r8, 32(%rbp)
	movq	32(%rbp), %rdx
	movq	24(%rbp), %rax
	movq	%rdx, %r8
	movq	%rax, %rdx
	movq	16(%rbp), %rcx
	call	_ZSt6fill_nIPxmxET_S1_T0_RKT1_
	addq	$32, %rsp
	popq	%rbp
	ret
	.seh_endproc
	.section	.text$_ZNK9__gnu_cxx13new_allocatorISt6vectorIxSaIxEEE8max_sizeEv,"x"
	.linkonce discard
	.align 2
	.p2align 4
	.globl	_ZNK9__gnu_cxx13new_allocatorISt6vectorIxSaIxEEE8max_sizeEv
	.def	_ZNK9__gnu_cxx13new_allocatorISt6vectorIxSaIxEEE8max_sizeEv;	.scl	2;	.type	32;	.endef
	.seh_proc	_ZNK9__gnu_cxx13new_allocatorISt6vectorIxSaIxEEE8max_sizeEv
_ZNK9__gnu_cxx13new_allocatorISt6vectorIxSaIxEEE8max_sizeEv:
.LFB9606:
	pushq	%rbp
	.seh_pushreg	%rbp
	movq	%rsp, %rbp
	.seh_setframe	%rbp, 0
	subq	$32, %rsp
	.seh_stackalloc	32
	.seh_endprologue
	movq	%rcx, 16(%rbp)
	movq	16(%rbp), %rcx
	call	_ZNK9__gnu_cxx13new_allocatorISt6vectorIxSaIxEEE11_M_max_sizeEv
	addq	$32, %rsp
	popq	%rbp
	ret
	.seh_endproc
	.section	.text$_ZNSt16allocator_traitsISaISt6vectorIxSaIxEEEE8allocateERS3_m,"x"
	.linkonce discard
	.p2align 4
	.globl	_ZNSt16allocator_traitsISaISt6vectorIxSaIxEEEE8allocateERS3_m
	.def	_ZNSt16allocator_traitsISaISt6vectorIxSaIxEEEE8allocateERS3_m;	.scl	2;	.type	32;	.endef
	.seh_proc	_ZNSt16allocator_traitsISaISt6vectorIxSaIxEEEE8allocateERS3_m
_ZNSt16allocator_traitsISaISt6vectorIxSaIxEEEE8allocateERS3_m:
.LFB9607:
	pushq	%rbp
	.seh_pushreg	%rbp
	movq	%rsp, %rbp
	.seh_setframe	%rbp, 0
	subq	$32, %rsp
	.seh_stackalloc	32
	.seh_endprologue
	movq	%rcx, 16(%rbp)
	movq	%rdx, 24(%rbp)
	movq	24(%rbp), %rax
	movl	$0, %r8d
	movq	%rax, %rdx
	movq	16(%rbp), %rcx
	call	_ZN9__gnu_cxx13new_allocatorISt6vectorIxSaIxEEE8allocateEmPKv
	addq	$32, %rsp
	popq	%rbp
	ret
	.seh_endproc
	.section	.text$_ZN9__gnu_cxx13new_allocatorISt6vectorIxSaIxEEE10deallocateEPS3_m,"x"
	.linkonce discard
	.align 2
	.p2align 4
	.globl	_ZN9__gnu_cxx13new_allocatorISt6vectorIxSaIxEEE10deallocateEPS3_m
	.def	_ZN9__gnu_cxx13new_allocatorISt6vectorIxSaIxEEE10deallocateEPS3_m;	.scl	2;	.type	32;	.endef
	.seh_proc	_ZN9__gnu_cxx13new_allocatorISt6vectorIxSaIxEEE10deallocateEPS3_m
_ZN9__gnu_cxx13new_allocatorISt6vectorIxSaIxEEE10deallocateEPS3_m:
.LFB9608:
	pushq	%rbp
	.seh_pushreg	%rbp
	movq	%rsp, %rbp
	.seh_setframe	%rbp, 0
	subq	$32, %rsp
	.seh_stackalloc	32
	.seh_endprologue
	movq	%rcx, 16(%rbp)
	movq	%rdx, 24(%rbp)
	movq	%r8, 32(%rbp)
	movq	32(%rbp), %rdx
	movq	%rdx, %rax
	addq	%rax, %rax
	addq	%rdx, %rax
	salq	$3, %rax
	movq	%rax, %rdx
	movq	24(%rbp), %rax
	movq	%rax, %rcx
	call	_ZdlPvm
	nop
	addq	$32, %rsp
	popq	%rbp
	ret
	.seh_endproc
	.section	.text$_ZNSt22__uninitialized_fill_nILb0EE15__uninit_fill_nIPSt6vectorIxSaIxEEmS4_EET_S6_T0_RKT1_,"x"
	.linkonce discard
	.p2align 4
	.globl	_ZNSt22__uninitialized_fill_nILb0EE15__uninit_fill_nIPSt6vectorIxSaIxEEmS4_EET_S6_T0_RKT1_
	.def	_ZNSt22__uninitialized_fill_nILb0EE15__uninit_fill_nIPSt6vectorIxSaIxEEmS4_EET_S6_T0_RKT1_;	.scl	2;	.type	32;	.endef
	.seh_proc	_ZNSt22__uninitialized_fill_nILb0EE15__uninit_fill_nIPSt6vectorIxSaIxEEmS4_EET_S6_T0_RKT1_
_ZNSt22__uninitialized_fill_nILb0EE15__uninit_fill_nIPSt6vectorIxSaIxEEmS4_EET_S6_T0_RKT1_:
.LFB9609:
	pushq	%rbp
	.seh_pushreg	%rbp
	pushq	%rbx
	.seh_pushreg	%rbx
	subq	$56, %rsp
	.seh_stackalloc	56
	leaq	128(%rsp), %rbp
	.seh_setframe	%rbp, 128
	.seh_endprologue
	movq	%rcx, -48(%rbp)
	movq	%rdx, -40(%rbp)
	movq	%r8, -32(%rbp)
	movq	-48(%rbp), %rax
	movq	%rax, -88(%rbp)
.L209:
	cmpq	$0, -40(%rbp)
	je	.L208
	movq	-88(%rbp), %rax
	movq	%rax, %rcx
	call	_ZSt11__addressofISt6vectorIxSaIxEEEPT_RS3_
	movq	%rax, %rcx
	movq	-32(%rbp), %rax
	movq	%rax, %rdx
.LEHB26:
	call	_ZSt10_ConstructISt6vectorIxSaIxEEJRKS2_EEvPT_DpOT0_
.LEHE26:
	subq	$1, -40(%rbp)
	addq	$24, -88(%rbp)
	jmp	.L209
.L208:
	movq	-88(%rbp), %rax
	jmp	.L215
.L213:
	movq	%rax, %rcx
	call	__cxa_begin_catch
	movq	-88(%rbp), %rax
	movq	%rax, %rdx
	movq	-48(%rbp), %rcx
.LEHB27:
	call	_ZSt8_DestroyIPSt6vectorIxSaIxEEEvT_S4_
	call	__cxa_rethrow
.LEHE27:
.L214:
	movq	%rax, %rbx
	call	__cxa_end_catch
	movq	%rbx, %rax
	movq	%rax, %rcx
.LEHB28:
	call	_Unwind_Resume
.LEHE28:
.L215:
	addq	$56, %rsp
	popq	%rbx
	popq	%rbp
	ret
	.seh_handler	__gxx_personality_seh0, @unwind, @except
	.seh_handlerdata
	.align 4
.LLSDA9609:
	.byte	0xff
	.byte	0x9b
	.uleb128 .LLSDATT9609-.LLSDATTD9609
.LLSDATTD9609:
	.byte	0x1
	.uleb128 .LLSDACSE9609-.LLSDACSB9609
.LLSDACSB9609:
	.uleb128 .LEHB26-.LFB9609
	.uleb128 .LEHE26-.LEHB26
	.uleb128 .L213-.LFB9609
	.uleb128 0x1
	.uleb128 .LEHB27-.LFB9609
	.uleb128 .LEHE27-.LEHB27
	.uleb128 .L214-.LFB9609
	.uleb128 0
	.uleb128 .LEHB28-.LFB9609
	.uleb128 .LEHE28-.LEHB28
	.uleb128 0
	.uleb128 0
.LLSDACSE9609:
	.byte	0x1
	.byte	0
	.align 4
	.long	0

.LLSDATT9609:
	.section	.text$_ZNSt22__uninitialized_fill_nILb0EE15__uninit_fill_nIPSt6vectorIxSaIxEEmS4_EET_S6_T0_RKT1_,"x"
	.linkonce discard
	.seh_endproc
	.section	.text$_ZSt11__addressofISt6vectorIxSaIxEEEPT_RS3_,"x"
	.linkonce discard
	.p2align 4
	.globl	_ZSt11__addressofISt6vectorIxSaIxEEEPT_RS3_
	.def	_ZSt11__addressofISt6vectorIxSaIxEEEPT_RS3_;	.scl	2;	.type	32;	.endef
	.seh_proc	_ZSt11__addressofISt6vectorIxSaIxEEEPT_RS3_
_ZSt11__addressofISt6vectorIxSaIxEEEPT_RS3_:
.LFB9610:
	pushq	%rbp
	.seh_pushreg	%rbp
	movq	%rsp, %rbp
	.seh_setframe	%rbp, 0
	.seh_endprologue
	movq	%rcx, 16(%rbp)
	movq	16(%rbp), %rax
	popq	%rbp
	ret
	.seh_endproc
	.section	.text$_ZSt8_DestroyISt6vectorIxSaIxEEEvPT_,"x"
	.linkonce discard
	.p2align 4
	.globl	_ZSt8_DestroyISt6vectorIxSaIxEEEvPT_
	.def	_ZSt8_DestroyISt6vectorIxSaIxEEEvPT_;	.scl	2;	.type	32;	.endef
	.seh_proc	_ZSt8_DestroyISt6vectorIxSaIxEEEvPT_
_ZSt8_DestroyISt6vectorIxSaIxEEEvPT_:
.LFB9611:
	pushq	%rbp
	.seh_pushreg	%rbp
	movq	%rsp, %rbp
	.seh_setframe	%rbp, 0
	subq	$32, %rsp
	.seh_stackalloc	32
	.seh_endprologue
	movq	%rcx, 16(%rbp)
	movq	16(%rbp), %rcx
	call	_ZNSt6vectorIxSaIxEED1Ev
	nop
	addq	$32, %rsp
	popq	%rbp
	ret
	.seh_endproc
	.section	.text$_ZSt12__niter_baseIPKxET_S2_,"x"
	.linkonce discard
	.p2align 4
	.globl	_ZSt12__niter_baseIPKxET_S2_
	.def	_ZSt12__niter_baseIPKxET_S2_;	.scl	2;	.type	32;	.endef
	.seh_proc	_ZSt12__niter_baseIPKxET_S2_
_ZSt12__niter_baseIPKxET_S2_:
.LFB9612:
	pushq	%rbp
	.seh_pushreg	%rbp
	movq	%rsp, %rbp
	.seh_setframe	%rbp, 0
	.seh_endprologue
	movq	%rcx, 16(%rbp)
	movq	16(%rbp), %rax
	popq	%rbp
	ret
	.seh_endproc
	.section	.text$_ZSt12__niter_baseIPxET_S1_,"x"
	.linkonce discard
	.p2align 4
	.globl	_ZSt12__niter_baseIPxET_S1_
	.def	_ZSt12__niter_baseIPxET_S1_;	.scl	2;	.type	32;	.endef
	.seh_proc	_ZSt12__niter_baseIPxET_S1_
_ZSt12__niter_baseIPxET_S1_:
.LFB9613:
	pushq	%rbp
	.seh_pushreg	%rbp
	movq	%rsp, %rbp
	.seh_setframe	%rbp, 0
	.seh_endprologue
	movq	%rcx, 16(%rbp)
	movq	16(%rbp), %rax
	popq	%rbp
	ret
	.seh_endproc
	.section	.text$_ZSt14__copy_move_a1ILb0EPKxPxET1_T0_S4_S3_,"x"
	.linkonce discard
	.p2align 4
	.globl	_ZSt14__copy_move_a1ILb0EPKxPxET1_T0_S4_S3_
	.def	_ZSt14__copy_move_a1ILb0EPKxPxET1_T0_S4_S3_;	.scl	2;	.type	32;	.endef
	.seh_proc	_ZSt14__copy_move_a1ILb0EPKxPxET1_T0_S4_S3_
_ZSt14__copy_move_a1ILb0EPKxPxET1_T0_S4_S3_:
.LFB9614:
	pushq	%rbp
	.seh_pushreg	%rbp
	movq	%rsp, %rbp
	.seh_setframe	%rbp, 0
	subq	$32, %rsp
	.seh_stackalloc	32
	.seh_endprologue
	movq	%rcx, 16(%rbp)
	movq	%rdx, 24(%rbp)
	movq	%r8, 32(%rbp)
	movq	32(%rbp), %rdx
	movq	24(%rbp), %rax
	movq	%rdx, %r8
	movq	%rax, %rdx
	movq	16(%rbp), %rcx
	call	_ZSt14__copy_move_a2ILb0EPKxPxET1_T0_S4_S3_
	addq	$32, %rsp
	popq	%rbp
	ret
	.seh_endproc
	.section	.text$_ZSt12__niter_wrapIPxET_RKS1_S1_,"x"
	.linkonce discard
	.p2align 4
	.globl	_ZSt12__niter_wrapIPxET_RKS1_S1_
	.def	_ZSt12__niter_wrapIPxET_RKS1_S1_;	.scl	2;	.type	32;	.endef
	.seh_proc	_ZSt12__niter_wrapIPxET_RKS1_S1_
_ZSt12__niter_wrapIPxET_RKS1_S1_:
.LFB9615:
	pushq	%rbp
	.seh_pushreg	%rbp
	movq	%rsp, %rbp
	.seh_setframe	%rbp, 0
	.seh_endprologue
	movq	%rcx, 16(%rbp)
	movq	%rdx, 24(%rbp)
	movq	24(%rbp), %rax
	popq	%rbp
	ret
	.seh_endproc
	.section	.text$_ZNSt20__uninitialized_copyILb1EE13__uninit_copyIPKxPxEET0_T_S6_S5_,"x"
	.linkonce discard
	.p2align 4
	.globl	_ZNSt20__uninitialized_copyILb1EE13__uninit_copyIPKxPxEET0_T_S6_S5_
	.def	_ZNSt20__uninitialized_copyILb1EE13__uninit_copyIPKxPxEET0_T_S6_S5_;	.scl	2;	.type	32;	.endef
	.seh_proc	_ZNSt20__uninitialized_copyILb1EE13__uninit_copyIPKxPxEET0_T_S6_S5_
_ZNSt20__uninitialized_copyILb1EE13__uninit_copyIPKxPxEET0_T_S6_S5_:
.LFB9616:
	pushq	%rbp
	.seh_pushreg	%rbp
	movq	%rsp, %rbp
	.seh_setframe	%rbp, 0
	subq	$32, %rsp
	.seh_stackalloc	32
	.seh_endprologue
	movq	%rcx, 16(%rbp)
	movq	%rdx, 24(%rbp)
	movq	%r8, 32(%rbp)
	movq	32(%rbp), %rdx
	movq	24(%rbp), %rax
	movq	%rdx, %r8
	movq	%rax, %rdx
	movq	16(%rbp), %rcx
	call	_ZSt4copyIPKxPxET0_T_S4_S3_
	addq	$32, %rsp
	popq	%rbp
	ret
	.seh_endproc
	.section	.text$_ZNK9__gnu_cxx13new_allocatorIxE11_M_max_sizeEv,"x"
	.linkonce discard
	.align 2
	.p2align 4
	.globl	_ZNK9__gnu_cxx13new_allocatorIxE11_M_max_sizeEv
	.def	_ZNK9__gnu_cxx13new_allocatorIxE11_M_max_sizeEv;	.scl	2;	.type	32;	.endef
	.seh_proc	_ZNK9__gnu_cxx13new_allocatorIxE11_M_max_sizeEv
_ZNK9__gnu_cxx13new_allocatorIxE11_M_max_sizeEv:
.LFB9700:
	pushq	%rbp
	.seh_pushreg	%rbp
	movq	%rsp, %rbp
	.seh_setframe	%rbp, 0
	.seh_endprologue
	movq	%rcx, 16(%rbp)
	movabsq	$1152921504606846975, %rax
	popq	%rbp
	ret
	.seh_endproc
	.section	.text$_ZN9__gnu_cxx13new_allocatorIxE8allocateEmPKv,"x"
	.linkonce discard
	.align 2
	.p2align 4
	.globl	_ZN9__gnu_cxx13new_allocatorIxE8allocateEmPKv
	.def	_ZN9__gnu_cxx13new_allocatorIxE8allocateEmPKv;	.scl	2;	.type	32;	.endef
	.seh_proc	_ZN9__gnu_cxx13new_allocatorIxE8allocateEmPKv
_ZN9__gnu_cxx13new_allocatorIxE8allocateEmPKv:
.LFB9701:
	pushq	%rbp
	.seh_pushreg	%rbp
	movq	%rsp, %rbp
	.seh_setframe	%rbp, 0
	subq	$32, %rsp
	.seh_stackalloc	32
	.seh_endprologue
	movq	%rcx, 16(%rbp)
	movq	%rdx, 24(%rbp)
	movq	%r8, 32(%rbp)
	movq	16(%rbp), %rcx
	call	_ZNK9__gnu_cxx13new_allocatorIxE11_M_max_sizeEv
	cmpq	%rax, 24(%rbp)
	seta	%al
	testb	%al, %al
	je	.L232
	call	_ZSt17__throw_bad_allocv
.L232:
	movq	24(%rbp), %rax
	salq	$3, %rax
	movq	%rax, %rcx
	call	_Znwm
	addq	$32, %rsp
	popq	%rbp
	ret
	.seh_endproc
	.section	.text$_ZSt6fill_nIPxmxET_S1_T0_RKT1_,"x"
	.linkonce discard
	.p2align 4
	.globl	_ZSt6fill_nIPxmxET_S1_T0_RKT1_
	.def	_ZSt6fill_nIPxmxET_S1_T0_RKT1_;	.scl	2;	.type	32;	.endef
	.seh_proc	_ZSt6fill_nIPxmxET_S1_T0_RKT1_
_ZSt6fill_nIPxmxET_S1_T0_RKT1_:
.LFB9702:
	pushq	%rbp
	.seh_pushreg	%rbp
	pushq	%rbx
	.seh_pushreg	%rbx
	subq	$40, %rsp
	.seh_stackalloc	40
	leaq	128(%rsp), %rbp
	.seh_setframe	%rbp, 128
	.seh_endprologue
	movq	%rcx, -64(%rbp)
	movq	%rdx, -56(%rbp)
	movq	%r8, -48(%rbp)
	leaq	-64(%rbp), %rcx
	call	_ZSt19__iterator_categoryIPxENSt15iterator_traitsIT_E17iterator_categoryERKS2_
	movq	-56(%rbp), %rax
	movq	%rax, %rcx
	call	_ZSt17__size_to_integerm
	movq	%rax, %rdx
	movq	-64(%rbp), %rax
	movq	-48(%rbp), %rcx
	movl	%ebx, %r9d
	movq	%rcx, %r8
	movq	%rax, %rcx
	call	_ZSt10__fill_n_aIPxmxET_S1_T0_RKT1_St26random_access_iterator_tag
	addq	$40, %rsp
	popq	%rbx
	popq	%rbp
	ret
	.seh_endproc
	.section	.text$_ZNK9__gnu_cxx13new_allocatorISt6vectorIxSaIxEEE11_M_max_sizeEv,"x"
	.linkonce discard
	.align 2
	.p2align 4
	.globl	_ZNK9__gnu_cxx13new_allocatorISt6vectorIxSaIxEEE11_M_max_sizeEv
	.def	_ZNK9__gnu_cxx13new_allocatorISt6vectorIxSaIxEEE11_M_max_sizeEv;	.scl	2;	.type	32;	.endef
	.seh_proc	_ZNK9__gnu_cxx13new_allocatorISt6vectorIxSaIxEEE11_M_max_sizeEv
_ZNK9__gnu_cxx13new_allocatorISt6vectorIxSaIxEEE11_M_max_sizeEv:
.LFB9703:
	pushq	%rbp
	.seh_pushreg	%rbp
	movq	%rsp, %rbp
	.seh_setframe	%rbp, 0
	.seh_endprologue
	movq	%rcx, 16(%rbp)
	movabsq	$384307168202282325, %rax
	popq	%rbp
	ret
	.seh_endproc
	.section	.text$_ZN9__gnu_cxx13new_allocatorISt6vectorIxSaIxEEE8allocateEmPKv,"x"
	.linkonce discard
	.align 2
	.p2align 4
	.globl	_ZN9__gnu_cxx13new_allocatorISt6vectorIxSaIxEEE8allocateEmPKv
	.def	_ZN9__gnu_cxx13new_allocatorISt6vectorIxSaIxEEE8allocateEmPKv;	.scl	2;	.type	32;	.endef
	.seh_proc	_ZN9__gnu_cxx13new_allocatorISt6vectorIxSaIxEEE8allocateEmPKv
_ZN9__gnu_cxx13new_allocatorISt6vectorIxSaIxEEE8allocateEmPKv:
.LFB9704:
	pushq	%rbp
	.seh_pushreg	%rbp
	movq	%rsp, %rbp
	.seh_setframe	%rbp, 0
	subq	$32, %rsp
	.seh_stackalloc	32
	.seh_endprologue
	movq	%rcx, 16(%rbp)
	movq	%rdx, 24(%rbp)
	movq	%r8, 32(%rbp)
	movq	16(%rbp), %rcx
	call	_ZNK9__gnu_cxx13new_allocatorISt6vectorIxSaIxEEE11_M_max_sizeEv
	cmpq	%rax, 24(%rbp)
	seta	%al
	testb	%al, %al
	je	.L239
	call	_ZSt17__throw_bad_allocv
.L239:
	movq	24(%rbp), %rdx
	movq	%rdx, %rax
	addq	%rax, %rax
	addq	%rdx, %rax
	salq	$3, %rax
	movq	%rax, %rcx
	call	_Znwm
	addq	$32, %rsp
	popq	%rbp
	ret
	.seh_endproc
	.section	.text$_ZSt10_ConstructISt6vectorIxSaIxEEJRKS2_EEvPT_DpOT0_,"x"
	.linkonce discard
	.p2align 4
	.globl	_ZSt10_ConstructISt6vectorIxSaIxEEJRKS2_EEvPT_DpOT0_
	.def	_ZSt10_ConstructISt6vectorIxSaIxEEJRKS2_EEvPT_DpOT0_;	.scl	2;	.type	32;	.endef
	.seh_proc	_ZSt10_ConstructISt6vectorIxSaIxEEJRKS2_EEvPT_DpOT0_
_ZSt10_ConstructISt6vectorIxSaIxEEJRKS2_EEvPT_DpOT0_:
.LFB9705:
	pushq	%rbp
	.seh_pushreg	%rbp
	pushq	%rdi
	.seh_pushreg	%rdi
	pushq	%rsi
	.seh_pushreg	%rsi
	pushq	%rbx
	.seh_pushreg	%rbx
	subq	$40, %rsp
	.seh_stackalloc	40
	leaq	128(%rsp), %rbp
	.seh_setframe	%rbp, 128
	.seh_endprologue
	movq	%rcx, -48(%rbp)
	movq	%rdx, -40(%rbp)
	movq	-40(%rbp), %rax
	movq	%rax, %rcx
	call	_ZSt7forwardIRKSt6vectorIxSaIxEEEOT_RNSt16remove_referenceIS5_E4typeE
	movq	%rax, %rdi
	movq	-48(%rbp), %rbx
	movq	%rbx, %rdx
	movl	$24, %ecx
	call	_ZnwmPv
	movq	%rax, %rsi
	movq	%rdi, %rdx
	movq	%rsi, %rcx
.LEHB29:
	call	_ZNSt6vectorIxSaIxEEC1ERKS1_
.LEHE29:
	jmp	.L244
.L243:
	movq	%rax, %rdi
	movq	%rbx, %rdx
	movq	%rsi, %rcx
	call	_ZdlPvS_
	movq	%rdi, %rax
	movq	%rax, %rcx
.LEHB30:
	call	_Unwind_Resume
	nop
.LEHE30:
.L244:
	addq	$40, %rsp
	popq	%rbx
	popq	%rsi
	popq	%rdi
	popq	%rbp
	ret
	.seh_handler	__gxx_personality_seh0, @unwind, @except
	.seh_handlerdata
.LLSDA9705:
	.byte	0xff
	.byte	0xff
	.byte	0x1
	.uleb128 .LLSDACSE9705-.LLSDACSB9705
.LLSDACSB9705:
	.uleb128 .LEHB29-.LFB9705
	.uleb128 .LEHE29-.LEHB29
	.uleb128 .L243-.LFB9705
	.uleb128 0
	.uleb128 .LEHB30-.LFB9705
	.uleb128 .LEHE30-.LEHB30
	.uleb128 0
	.uleb128 0
.LLSDACSE9705:
	.section	.text$_ZSt10_ConstructISt6vectorIxSaIxEEJRKS2_EEvPT_DpOT0_,"x"
	.linkonce discard
	.seh_endproc
	.section	.text$_ZSt14__copy_move_a2ILb0EPKxPxET1_T0_S4_S3_,"x"
	.linkonce discard
	.p2align 4
	.globl	_ZSt14__copy_move_a2ILb0EPKxPxET1_T0_S4_S3_
	.def	_ZSt14__copy_move_a2ILb0EPKxPxET1_T0_S4_S3_;	.scl	2;	.type	32;	.endef
	.seh_proc	_ZSt14__copy_move_a2ILb0EPKxPxET1_T0_S4_S3_
_ZSt14__copy_move_a2ILb0EPKxPxET1_T0_S4_S3_:
.LFB9706:
	pushq	%rbp
	.seh_pushreg	%rbp
	movq	%rsp, %rbp
	.seh_setframe	%rbp, 0
	subq	$32, %rsp
	.seh_stackalloc	32
	.seh_endprologue
	movq	%rcx, 16(%rbp)
	movq	%rdx, 24(%rbp)
	movq	%r8, 32(%rbp)
	movq	32(%rbp), %rdx
	movq	24(%rbp), %rax
	movq	%rdx, %r8
	movq	%rax, %rdx
	movq	16(%rbp), %rcx
	call	_ZNSt11__copy_moveILb0ELb1ESt26random_access_iterator_tagE8__copy_mIxEEPT_PKS3_S6_S4_
	addq	$32, %rsp
	popq	%rbp
	ret
	.seh_endproc
	.section	.text$_ZSt19__iterator_categoryIPxENSt15iterator_traitsIT_E17iterator_categoryERKS2_,"x"
	.linkonce discard
	.p2align 4
	.globl	_ZSt19__iterator_categoryIPxENSt15iterator_traitsIT_E17iterator_categoryERKS2_
	.def	_ZSt19__iterator_categoryIPxENSt15iterator_traitsIT_E17iterator_categoryERKS2_;	.scl	2;	.type	32;	.endef
	.seh_proc	_ZSt19__iterator_categoryIPxENSt15iterator_traitsIT_E17iterator_categoryERKS2_
_ZSt19__iterator_categoryIPxENSt15iterator_traitsIT_E17iterator_categoryERKS2_:
.LFB9763:
	pushq	%rbp
	.seh_pushreg	%rbp
	movq	%rsp, %rbp
	.seh_setframe	%rbp, 0
	.seh_endprologue
	movq	%rcx, 16(%rbp)
	nop
	popq	%rbp
	ret
	.seh_endproc
	.section	.text$_ZSt10__fill_n_aIPxmxET_S1_T0_RKT1_St26random_access_iterator_tag,"x"
	.linkonce discard
	.p2align 4
	.globl	_ZSt10__fill_n_aIPxmxET_S1_T0_RKT1_St26random_access_iterator_tag
	.def	_ZSt10__fill_n_aIPxmxET_S1_T0_RKT1_St26random_access_iterator_tag;	.scl	2;	.type	32;	.endef
	.seh_proc	_ZSt10__fill_n_aIPxmxET_S1_T0_RKT1_St26random_access_iterator_tag
_ZSt10__fill_n_aIPxmxET_S1_T0_RKT1_St26random_access_iterator_tag:
.LFB9764:
	pushq	%rbp
	.seh_pushreg	%rbp
	movq	%rsp, %rbp
	.seh_setframe	%rbp, 0
	subq	$32, %rsp
	.seh_stackalloc	32
	.seh_endprologue
	movq	%rcx, 16(%rbp)
	movq	%rdx, 24(%rbp)
	movq	%r8, 32(%rbp)
	cmpq	$0, 24(%rbp)
	jne	.L250
	movq	16(%rbp), %rax
	jmp	.L251
.L250:
	movq	24(%rbp), %rax
	leaq	0(,%rax,8), %rdx
	movq	16(%rbp), %rax
	addq	%rdx, %rax
	movq	32(%rbp), %rdx
	movq	%rdx, %r8
	movq	%rax, %rdx
	movq	16(%rbp), %rcx
	call	_ZSt8__fill_aIPxxEvT_S1_RKT0_
	movq	24(%rbp), %rax
	leaq	0(,%rax,8), %rdx
	movq	16(%rbp), %rax
	addq	%rdx, %rax
.L251:
	addq	$32, %rsp
	popq	%rbp
	ret
	.seh_endproc
	.section	.text$_ZSt7forwardIRKSt6vectorIxSaIxEEEOT_RNSt16remove_referenceIS5_E4typeE,"x"
	.linkonce discard
	.p2align 4
	.globl	_ZSt7forwardIRKSt6vectorIxSaIxEEEOT_RNSt16remove_referenceIS5_E4typeE
	.def	_ZSt7forwardIRKSt6vectorIxSaIxEEEOT_RNSt16remove_referenceIS5_E4typeE;	.scl	2;	.type	32;	.endef
	.seh_proc	_ZSt7forwardIRKSt6vectorIxSaIxEEEOT_RNSt16remove_referenceIS5_E4typeE
_ZSt7forwardIRKSt6vectorIxSaIxEEEOT_RNSt16remove_referenceIS5_E4typeE:
.LFB9765:
	pushq	%rbp
	.seh_pushreg	%rbp
	movq	%rsp, %rbp
	.seh_setframe	%rbp, 0
	.seh_endprologue
	movq	%rcx, 16(%rbp)
	movq	16(%rbp), %rax
	popq	%rbp
	ret
	.seh_endproc
	.section	.text$_ZNSt6vectorIxSaIxEEC1ERKS1_,"x"
	.linkonce discard
	.align 2
	.p2align 4
	.globl	_ZNSt6vectorIxSaIxEEC1ERKS1_
	.def	_ZNSt6vectorIxSaIxEEC1ERKS1_;	.scl	2;	.type	32;	.endef
	.seh_proc	_ZNSt6vectorIxSaIxEEC1ERKS1_
_ZNSt6vectorIxSaIxEEC1ERKS1_:
.LFB9768:
	pushq	%rbp
	.seh_pushreg	%rbp
	pushq	%rdi
	.seh_pushreg	%rdi
	pushq	%rsi
	.seh_pushreg	%rsi
	pushq	%rbx
	.seh_pushreg	%rbx
	subq	$56, %rsp
	.seh_stackalloc	56
	leaq	128(%rsp), %rbp
	.seh_setframe	%rbp, 128
	.seh_endprologue
	movq	%rcx, -32(%rbp)
	movq	%rdx, -24(%rbp)
	movq	-32(%rbp), %rbx
	movq	-24(%rbp), %rax
	movq	%rax, %rcx
	call	_ZNKSt12_Vector_baseIxSaIxEE19_M_get_Tp_allocatorEv
	movq	%rax, %rdx
	leaq	-81(%rbp), %rax
	movq	%rax, %rcx
.LEHB31:
	call	_ZN9__gnu_cxx14__alloc_traitsISaIxExE17_S_select_on_copyERKS1_
.LEHE31:
	movq	-24(%rbp), %rax
	movq	%rax, %rcx
	call	_ZNKSt6vectorIxSaIxEE4sizeEv
	leaq	-81(%rbp), %rdx
	movq	%rdx, %r8
	movq	%rax, %rdx
	movq	%rbx, %rcx
.LEHB32:
	call	_ZNSt12_Vector_baseIxSaIxEEC2EmRKS0_
.LEHE32:
	leaq	-81(%rbp), %rax
	movq	%rax, %rcx
	call	_ZNSaIxED1Ev
	movq	-32(%rbp), %rax
	movq	%rax, %rcx
	call	_ZNSt12_Vector_baseIxSaIxEE19_M_get_Tp_allocatorEv
	movq	%rax, %rsi
	movq	-32(%rbp), %rax
	movq	(%rax), %rdi
	movq	-24(%rbp), %rax
	movq	%rax, %rcx
	call	_ZNKSt6vectorIxSaIxEE3endEv
	movq	%rax, %rbx
	movq	-24(%rbp), %rax
	movq	%rax, %rcx
	call	_ZNKSt6vectorIxSaIxEE5beginEv
	movq	%rsi, %r9
	movq	%rdi, %r8
	movq	%rbx, %rdx
	movq	%rax, %rcx
.LEHB33:
	call	_ZSt22__uninitialized_copy_aIN9__gnu_cxx17__normal_iteratorIPKxSt6vectorIxSaIxEEEEPxxET0_T_SA_S9_RSaIT1_E
.LEHE33:
	movq	-32(%rbp), %rdx
	movq	%rax, 8(%rdx)
	jmp	.L259
.L257:
	movq	%rax, %rbx
	leaq	-81(%rbp), %rax
	movq	%rax, %rcx
	call	_ZNSaIxED1Ev
	movq	%rbx, %rax
	movq	%rax, %rcx
.LEHB34:
	call	_Unwind_Resume
.L258:
	movq	%rax, %rbx
	movq	-32(%rbp), %rax
	movq	%rax, %rcx
	call	_ZNSt12_Vector_baseIxSaIxEED2Ev
	movq	%rbx, %rax
	movq	%rax, %rcx
	call	_Unwind_Resume
	nop
.LEHE34:
.L259:
	addq	$56, %rsp
	popq	%rbx
	popq	%rsi
	popq	%rdi
	popq	%rbp
	ret
	.seh_handler	__gxx_personality_seh0, @unwind, @except
	.seh_handlerdata
.LLSDA9768:
	.byte	0xff
	.byte	0xff
	.byte	0x1
	.uleb128 .LLSDACSE9768-.LLSDACSB9768
.LLSDACSB9768:
	.uleb128 .LEHB31-.LFB9768
	.uleb128 .LEHE31-.LEHB31
	.uleb128 0
	.uleb128 0
	.uleb128 .LEHB32-.LFB9768
	.uleb128 .LEHE32-.LEHB32
	.uleb128 .L257-.LFB9768
	.uleb128 0
	.uleb128 .LEHB33-.LFB9768
	.uleb128 .LEHE33-.LEHB33
	.uleb128 .L258-.LFB9768
	.uleb128 0
	.uleb128 .LEHB34-.LFB9768
	.uleb128 .LEHE34-.LEHB34
	.uleb128 0
	.uleb128 0
.LLSDACSE9768:
	.section	.text$_ZNSt6vectorIxSaIxEEC1ERKS1_,"x"
	.linkonce discard
	.seh_endproc
	.section	.text$_ZNSt11__copy_moveILb0ELb1ESt26random_access_iterator_tagE8__copy_mIxEEPT_PKS3_S6_S4_,"x"
	.linkonce discard
	.p2align 4
	.globl	_ZNSt11__copy_moveILb0ELb1ESt26random_access_iterator_tagE8__copy_mIxEEPT_PKS3_S6_S4_
	.def	_ZNSt11__copy_moveILb0ELb1ESt26random_access_iterator_tagE8__copy_mIxEEPT_PKS3_S6_S4_;	.scl	2;	.type	32;	.endef
	.seh_proc	_ZNSt11__copy_moveILb0ELb1ESt26random_access_iterator_tagE8__copy_mIxEEPT_PKS3_S6_S4_
_ZNSt11__copy_moveILb0ELb1ESt26random_access_iterator_tagE8__copy_mIxEEPT_PKS3_S6_S4_:
.LFB9769:
	pushq	%rbp
	.seh_pushreg	%rbp
	movq	%rsp, %rbp
	.seh_setframe	%rbp, 0
	subq	$48, %rsp
	.seh_stackalloc	48
	.seh_endprologue
	movq	%rcx, 16(%rbp)
	movq	%rdx, 24(%rbp)
	movq	%r8, 32(%rbp)
	movq	24(%rbp), %rax
	subq	16(%rbp), %rax
	sarq	$3, %rax
	movq	%rax, -8(%rbp)
	cmpq	$0, -8(%rbp)
	je	.L261
	movq	-8(%rbp), %rax
	leaq	0(,%rax,8), %rdx
	movq	32(%rbp), %rax
	movq	%rdx, %r8
	movq	16(%rbp), %rdx
	movq	%rax, %rcx
	call	memmove
.L261:
	movq	-8(%rbp), %rax
	leaq	0(,%rax,8), %rdx
	movq	32(%rbp), %rax
	addq	%rdx, %rax
	addq	$48, %rsp
	popq	%rbp
	ret
	.seh_endproc
	.section	.text$_ZSt8__fill_aIPxxEvT_S1_RKT0_,"x"
	.linkonce discard
	.p2align 4
	.globl	_ZSt8__fill_aIPxxEvT_S1_RKT0_
	.def	_ZSt8__fill_aIPxxEvT_S1_RKT0_;	.scl	2;	.type	32;	.endef
	.seh_proc	_ZSt8__fill_aIPxxEvT_S1_RKT0_
_ZSt8__fill_aIPxxEvT_S1_RKT0_:
.LFB9787:
	pushq	%rbp
	.seh_pushreg	%rbp
	movq	%rsp, %rbp
	.seh_setframe	%rbp, 0
	subq	$32, %rsp
	.seh_stackalloc	32
	.seh_endprologue
	movq	%rcx, 16(%rbp)
	movq	%rdx, 24(%rbp)
	movq	%r8, 32(%rbp)
	movq	32(%rbp), %rdx
	movq	24(%rbp), %rax
	movq	%rdx, %r8
	movq	%rax, %rdx
	movq	16(%rbp), %rcx
	call	_ZSt9__fill_a1IPxxEN9__gnu_cxx11__enable_ifIXsrSt11__is_scalarIT0_E7__valueEvE6__typeET_S8_RKS4_
	nop
	addq	$32, %rsp
	popq	%rbp
	ret
	.seh_endproc
	.section	.text$_ZN9__gnu_cxx14__alloc_traitsISaIxExE17_S_select_on_copyERKS1_,"x"
	.linkonce discard
	.p2align 4
	.globl	_ZN9__gnu_cxx14__alloc_traitsISaIxExE17_S_select_on_copyERKS1_
	.def	_ZN9__gnu_cxx14__alloc_traitsISaIxExE17_S_select_on_copyERKS1_;	.scl	2;	.type	32;	.endef
	.seh_proc	_ZN9__gnu_cxx14__alloc_traitsISaIxExE17_S_select_on_copyERKS1_
_ZN9__gnu_cxx14__alloc_traitsISaIxExE17_S_select_on_copyERKS1_:
.LFB9788:
	pushq	%rbp
	.seh_pushreg	%rbp
	movq	%rsp, %rbp
	.seh_setframe	%rbp, 0
	subq	$32, %rsp
	.seh_stackalloc	32
	.seh_endprologue
	movq	%rcx, 16(%rbp)
	movq	%rdx, 24(%rbp)
	movq	16(%rbp), %rax
	movq	24(%rbp), %rdx
	movq	%rax, %rcx
	call	_ZNSt16allocator_traitsISaIxEE37select_on_container_copy_constructionERKS0_
	movq	16(%rbp), %rax
	addq	$32, %rsp
	popq	%rbp
	ret
	.seh_endproc
	.section	.text$_ZNKSt12_Vector_baseIxSaIxEE19_M_get_Tp_allocatorEv,"x"
	.linkonce discard
	.align 2
	.p2align 4
	.globl	_ZNKSt12_Vector_baseIxSaIxEE19_M_get_Tp_allocatorEv
	.def	_ZNKSt12_Vector_baseIxSaIxEE19_M_get_Tp_allocatorEv;	.scl	2;	.type	32;	.endef
	.seh_proc	_ZNKSt12_Vector_baseIxSaIxEE19_M_get_Tp_allocatorEv
_ZNKSt12_Vector_baseIxSaIxEE19_M_get_Tp_allocatorEv:
.LFB9789:
	pushq	%rbp
	.seh_pushreg	%rbp
	movq	%rsp, %rbp
	.seh_setframe	%rbp, 0
	.seh_endprologue
	movq	%rcx, 16(%rbp)
	movq	16(%rbp), %rax
	popq	%rbp
	ret
	.seh_endproc
	.section	.text$_ZNKSt6vectorIxSaIxEE5beginEv,"x"
	.linkonce discard
	.align 2
	.p2align 4
	.globl	_ZNKSt6vectorIxSaIxEE5beginEv
	.def	_ZNKSt6vectorIxSaIxEE5beginEv;	.scl	2;	.type	32;	.endef
	.seh_proc	_ZNKSt6vectorIxSaIxEE5beginEv
_ZNKSt6vectorIxSaIxEE5beginEv:
.LFB9790:
	pushq	%rbp
	.seh_pushreg	%rbp
	movq	%rsp, %rbp
	.seh_setframe	%rbp, 0
	subq	$48, %rsp
	.seh_stackalloc	48
	.seh_endprologue
	movq	%rcx, 16(%rbp)
	movq	16(%rbp), %rdx
	leaq	-8(%rbp), %rax
	movq	%rax, %rcx
	call	_ZN9__gnu_cxx17__normal_iteratorIPKxSt6vectorIxSaIxEEEC1ERKS2_
	movq	-8(%rbp), %rax
	addq	$48, %rsp
	popq	%rbp
	ret
	.seh_endproc
	.section	.text$_ZNKSt6vectorIxSaIxEE3endEv,"x"
	.linkonce discard
	.align 2
	.p2align 4
	.globl	_ZNKSt6vectorIxSaIxEE3endEv
	.def	_ZNKSt6vectorIxSaIxEE3endEv;	.scl	2;	.type	32;	.endef
	.seh_proc	_ZNKSt6vectorIxSaIxEE3endEv
_ZNKSt6vectorIxSaIxEE3endEv:
.LFB9791:
	pushq	%rbp
	.seh_pushreg	%rbp
	movq	%rsp, %rbp
	.seh_setframe	%rbp, 0
	subq	$48, %rsp
	.seh_stackalloc	48
	.seh_endprologue
	movq	%rcx, 16(%rbp)
	movq	16(%rbp), %rax
	leaq	8(%rax), %rdx
	leaq	-8(%rbp), %rax
	movq	%rax, %rcx
	call	_ZN9__gnu_cxx17__normal_iteratorIPKxSt6vectorIxSaIxEEEC1ERKS2_
	movq	-8(%rbp), %rax
	addq	$48, %rsp
	popq	%rbp
	ret
	.seh_endproc
	.section	.text$_ZSt22__uninitialized_copy_aIN9__gnu_cxx17__normal_iteratorIPKxSt6vectorIxSaIxEEEEPxxET0_T_SA_S9_RSaIT1_E,"x"
	.linkonce discard
	.p2align 4
	.globl	_ZSt22__uninitialized_copy_aIN9__gnu_cxx17__normal_iteratorIPKxSt6vectorIxSaIxEEEEPxxET0_T_SA_S9_RSaIT1_E
	.def	_ZSt22__uninitialized_copy_aIN9__gnu_cxx17__normal_iteratorIPKxSt6vectorIxSaIxEEEEPxxET0_T_SA_S9_RSaIT1_E;	.scl	2;	.type	32;	.endef
	.seh_proc	_ZSt22__uninitialized_copy_aIN9__gnu_cxx17__normal_iteratorIPKxSt6vectorIxSaIxEEEEPxxET0_T_SA_S9_RSaIT1_E
_ZSt22__uninitialized_copy_aIN9__gnu_cxx17__normal_iteratorIPKxSt6vectorIxSaIxEEEEPxxET0_T_SA_S9_RSaIT1_E:
.LFB9792:
	pushq	%rbp
	.seh_pushreg	%rbp
	movq	%rsp, %rbp
	.seh_setframe	%rbp, 0
	subq	$32, %rsp
	.seh_stackalloc	32
	.seh_endprologue
	movq	%rcx, 16(%rbp)
	movq	%rdx, 24(%rbp)
	movq	%r8, 32(%rbp)
	movq	%r9, 40(%rbp)
	movq	32(%rbp), %rdx
	movq	24(%rbp), %rax
	movq	%rdx, %r8
	movq	%rax, %rdx
	movq	16(%rbp), %rcx
	call	_ZSt18uninitialized_copyIN9__gnu_cxx17__normal_iteratorIPKxSt6vectorIxSaIxEEEEPxET0_T_SA_S9_
	addq	$32, %rsp
	popq	%rbp
	ret
	.seh_endproc
	.section	.text$_ZSt9__fill_a1IPxxEN9__gnu_cxx11__enable_ifIXsrSt11__is_scalarIT0_E7__valueEvE6__typeET_S8_RKS4_,"x"
	.linkonce discard
	.p2align 4
	.globl	_ZSt9__fill_a1IPxxEN9__gnu_cxx11__enable_ifIXsrSt11__is_scalarIT0_E7__valueEvE6__typeET_S8_RKS4_
	.def	_ZSt9__fill_a1IPxxEN9__gnu_cxx11__enable_ifIXsrSt11__is_scalarIT0_E7__valueEvE6__typeET_S8_RKS4_;	.scl	2;	.type	32;	.endef
	.seh_proc	_ZSt9__fill_a1IPxxEN9__gnu_cxx11__enable_ifIXsrSt11__is_scalarIT0_E7__valueEvE6__typeET_S8_RKS4_
_ZSt9__fill_a1IPxxEN9__gnu_cxx11__enable_ifIXsrSt11__is_scalarIT0_E7__valueEvE6__typeET_S8_RKS4_:
.LFB9796:
	pushq	%rbp
	.seh_pushreg	%rbp
	movq	%rsp, %rbp
	.seh_setframe	%rbp, 0
	subq	$16, %rsp
	.seh_stackalloc	16
	.seh_endprologue
	movq	%rcx, 16(%rbp)
	movq	%rdx, 24(%rbp)
	movq	%r8, 32(%rbp)
	movq	32(%rbp), %rax
	movq	(%rax), %rax
	movq	%rax, -8(%rbp)
.L276:
	movq	16(%rbp), %rax
	cmpq	24(%rbp), %rax
	je	.L277
	movq	16(%rbp), %rax
	movq	-8(%rbp), %rdx
	movq	%rdx, (%rax)
	addq	$8, 16(%rbp)
	jmp	.L276
.L277:
	nop
	addq	$16, %rsp
	popq	%rbp
	ret
	.seh_endproc
	.section	.text$_ZNSt16allocator_traitsISaIxEE37select_on_container_copy_constructionERKS0_,"x"
	.linkonce discard
	.p2align 4
	.globl	_ZNSt16allocator_traitsISaIxEE37select_on_container_copy_constructionERKS0_
	.def	_ZNSt16allocator_traitsISaIxEE37select_on_container_copy_constructionERKS0_;	.scl	2;	.type	32;	.endef
	.seh_proc	_ZNSt16allocator_traitsISaIxEE37select_on_container_copy_constructionERKS0_
_ZNSt16allocator_traitsISaIxEE37select_on_container_copy_constructionERKS0_:
.LFB9797:
	pushq	%rbp
	.seh_pushreg	%rbp
	movq	%rsp, %rbp
	.seh_setframe	%rbp, 0
	subq	$32, %rsp
	.seh_stackalloc	32
	.seh_endprologue
	movq	%rcx, 16(%rbp)
	movq	%rdx, 24(%rbp)
	movq	24(%rbp), %rax
	movq	%rax, %rdx
	movq	16(%rbp), %rcx
	call	_ZNSaIxEC1ERKS_
	movq	16(%rbp), %rax
	addq	$32, %rsp
	popq	%rbp
	ret
	.seh_endproc
	.section	.text$_ZN9__gnu_cxx17__normal_iteratorIPKxSt6vectorIxSaIxEEEC1ERKS2_,"x"
	.linkonce discard
	.align 2
	.p2align 4
	.globl	_ZN9__gnu_cxx17__normal_iteratorIPKxSt6vectorIxSaIxEEEC1ERKS2_
	.def	_ZN9__gnu_cxx17__normal_iteratorIPKxSt6vectorIxSaIxEEEC1ERKS2_;	.scl	2;	.type	32;	.endef
	.seh_proc	_ZN9__gnu_cxx17__normal_iteratorIPKxSt6vectorIxSaIxEEEC1ERKS2_
_ZN9__gnu_cxx17__normal_iteratorIPKxSt6vectorIxSaIxEEEC1ERKS2_:
.LFB9800:
	pushq	%rbp
	.seh_pushreg	%rbp
	movq	%rsp, %rbp
	.seh_setframe	%rbp, 0
	.seh_endprologue
	movq	%rcx, 16(%rbp)
	movq	%rdx, 24(%rbp)
	movq	24(%rbp), %rax
	movq	(%rax), %rdx
	movq	16(%rbp), %rax
	movq	%rdx, (%rax)
	nop
	popq	%rbp
	ret
	.seh_endproc
	.section	.text$_ZSt18uninitialized_copyIN9__gnu_cxx17__normal_iteratorIPKxSt6vectorIxSaIxEEEEPxET0_T_SA_S9_,"x"
	.linkonce discard
	.p2align 4
	.globl	_ZSt18uninitialized_copyIN9__gnu_cxx17__normal_iteratorIPKxSt6vectorIxSaIxEEEEPxET0_T_SA_S9_
	.def	_ZSt18uninitialized_copyIN9__gnu_cxx17__normal_iteratorIPKxSt6vectorIxSaIxEEEEPxET0_T_SA_S9_;	.scl	2;	.type	32;	.endef
	.seh_proc	_ZSt18uninitialized_copyIN9__gnu_cxx17__normal_iteratorIPKxSt6vectorIxSaIxEEEEPxET0_T_SA_S9_
_ZSt18uninitialized_copyIN9__gnu_cxx17__normal_iteratorIPKxSt6vectorIxSaIxEEEEPxET0_T_SA_S9_:
.LFB9801:
	pushq	%rbp
	.seh_pushreg	%rbp
	movq	%rsp, %rbp
	.seh_setframe	%rbp, 0
	subq	$48, %rsp
	.seh_stackalloc	48
	.seh_endprologue
	movq	%rcx, 16(%rbp)
	movq	%rdx, 24(%rbp)
	movq	%r8, 32(%rbp)
	movb	$1, -1(%rbp)
	movq	32(%rbp), %rdx
	movq	24(%rbp), %rax
	movq	%rdx, %r8
	movq	%rax, %rdx
	movq	16(%rbp), %rcx
	call	_ZNSt20__uninitialized_copyILb1EE13__uninit_copyIN9__gnu_cxx17__normal_iteratorIPKxSt6vectorIxSaIxEEEEPxEET0_T_SC_SB_
	addq	$48, %rsp
	popq	%rbp
	ret
	.seh_endproc
	.section	.text$_ZNSt20__uninitialized_copyILb1EE13__uninit_copyIN9__gnu_cxx17__normal_iteratorIPKxSt6vectorIxSaIxEEEEPxEET0_T_SC_SB_,"x"
	.linkonce discard
	.p2align 4
	.globl	_ZNSt20__uninitialized_copyILb1EE13__uninit_copyIN9__gnu_cxx17__normal_iteratorIPKxSt6vectorIxSaIxEEEEPxEET0_T_SC_SB_
	.def	_ZNSt20__uninitialized_copyILb1EE13__uninit_copyIN9__gnu_cxx17__normal_iteratorIPKxSt6vectorIxSaIxEEEEPxEET0_T_SC_SB_;	.scl	2;	.type	32;	.endef
	.seh_proc	_ZNSt20__uninitialized_copyILb1EE13__uninit_copyIN9__gnu_cxx17__normal_iteratorIPKxSt6vectorIxSaIxEEEEPxEET0_T_SC_SB_
_ZNSt20__uninitialized_copyILb1EE13__uninit_copyIN9__gnu_cxx17__normal_iteratorIPKxSt6vectorIxSaIxEEEEPxEET0_T_SC_SB_:
.LFB9803:
	pushq	%rbp
	.seh_pushreg	%rbp
	movq	%rsp, %rbp
	.seh_setframe	%rbp, 0
	subq	$32, %rsp
	.seh_stackalloc	32
	.seh_endprologue
	movq	%rcx, 16(%rbp)
	movq	%rdx, 24(%rbp)
	movq	%r8, 32(%rbp)
	movq	32(%rbp), %rdx
	movq	24(%rbp), %rax
	movq	%rdx, %r8
	movq	%rax, %rdx
	movq	16(%rbp), %rcx
	call	_ZSt4copyIN9__gnu_cxx17__normal_iteratorIPKxSt6vectorIxSaIxEEEEPxET0_T_SA_S9_
	addq	$32, %rsp
	popq	%rbp
	ret
	.seh_endproc
	.section	.text$_ZSt4copyIN9__gnu_cxx17__normal_iteratorIPKxSt6vectorIxSaIxEEEEPxET0_T_SA_S9_,"x"
	.linkonce discard
	.p2align 4
	.globl	_ZSt4copyIN9__gnu_cxx17__normal_iteratorIPKxSt6vectorIxSaIxEEEEPxET0_T_SA_S9_
	.def	_ZSt4copyIN9__gnu_cxx17__normal_iteratorIPKxSt6vectorIxSaIxEEEEPxET0_T_SA_S9_;	.scl	2;	.type	32;	.endef
	.seh_proc	_ZSt4copyIN9__gnu_cxx17__normal_iteratorIPKxSt6vectorIxSaIxEEEEPxET0_T_SA_S9_
_ZSt4copyIN9__gnu_cxx17__normal_iteratorIPKxSt6vectorIxSaIxEEEEPxET0_T_SA_S9_:
.LFB9805:
	pushq	%rbp
	.seh_pushreg	%rbp
	pushq	%rbx
	.seh_pushreg	%rbx
	subq	$40, %rsp
	.seh_stackalloc	40
	leaq	128(%rsp), %rbp
	.seh_setframe	%rbp, 128
	.seh_endprologue
	movq	%rcx, -64(%rbp)
	movq	%rdx, -56(%rbp)
	movq	%r8, -48(%rbp)
	movq	-56(%rbp), %rax
	movq	%rax, %rcx
	call	_ZSt12__miter_baseIN9__gnu_cxx17__normal_iteratorIPKxSt6vectorIxSaIxEEEEET_S8_
	movq	%rax, %rbx
	movq	-64(%rbp), %rcx
	call	_ZSt12__miter_baseIN9__gnu_cxx17__normal_iteratorIPKxSt6vectorIxSaIxEEEEET_S8_
	movq	-48(%rbp), %rdx
	movq	%rdx, %r8
	movq	%rbx, %rdx
	movq	%rax, %rcx
	call	_ZSt13__copy_move_aILb0EN9__gnu_cxx17__normal_iteratorIPKxSt6vectorIxSaIxEEEEPxET1_T0_SA_S9_
	addq	$40, %rsp
	popq	%rbx
	popq	%rbp
	ret
	.seh_endproc
	.section	.text$_ZSt12__miter_baseIN9__gnu_cxx17__normal_iteratorIPKxSt6vectorIxSaIxEEEEET_S8_,"x"
	.linkonce discard
	.p2align 4
	.globl	_ZSt12__miter_baseIN9__gnu_cxx17__normal_iteratorIPKxSt6vectorIxSaIxEEEEET_S8_
	.def	_ZSt12__miter_baseIN9__gnu_cxx17__normal_iteratorIPKxSt6vectorIxSaIxEEEEET_S8_;	.scl	2;	.type	32;	.endef
	.seh_proc	_ZSt12__miter_baseIN9__gnu_cxx17__normal_iteratorIPKxSt6vectorIxSaIxEEEEET_S8_
_ZSt12__miter_baseIN9__gnu_cxx17__normal_iteratorIPKxSt6vectorIxSaIxEEEEET_S8_:
.LFB9807:
	pushq	%rbp
	.seh_pushreg	%rbp
	movq	%rsp, %rbp
	.seh_setframe	%rbp, 0
	.seh_endprologue
	movq	%rcx, 16(%rbp)
	movq	16(%rbp), %rax
	popq	%rbp
	ret
	.seh_endproc
	.section	.text$_ZSt13__copy_move_aILb0EN9__gnu_cxx17__normal_iteratorIPKxSt6vectorIxSaIxEEEEPxET1_T0_SA_S9_,"x"
	.linkonce discard
	.p2align 4
	.globl	_ZSt13__copy_move_aILb0EN9__gnu_cxx17__normal_iteratorIPKxSt6vectorIxSaIxEEEEPxET1_T0_SA_S9_
	.def	_ZSt13__copy_move_aILb0EN9__gnu_cxx17__normal_iteratorIPKxSt6vectorIxSaIxEEEEPxET1_T0_SA_S9_;	.scl	2;	.type	32;	.endef
	.seh_proc	_ZSt13__copy_move_aILb0EN9__gnu_cxx17__normal_iteratorIPKxSt6vectorIxSaIxEEEEPxET1_T0_SA_S9_
_ZSt13__copy_move_aILb0EN9__gnu_cxx17__normal_iteratorIPKxSt6vectorIxSaIxEEEEPxET1_T0_SA_S9_:
.LFB9808:
	pushq	%rbp
	.seh_pushreg	%rbp
	pushq	%rsi
	.seh_pushreg	%rsi
	pushq	%rbx
	.seh_pushreg	%rbx
	movq	%rsp, %rbp
	.seh_setframe	%rbp, 0
	subq	$32, %rsp
	.seh_stackalloc	32
	.seh_endprologue
	movq	%rcx, 32(%rbp)
	movq	%rdx, 40(%rbp)
	movq	%r8, 48(%rbp)
	movq	48(%rbp), %rax
	movq	%rax, %rcx
	call	_ZSt12__niter_baseIPxET_S1_
	movq	%rax, %rsi
	movq	40(%rbp), %rax
	movq	%rax, %rcx
	call	_ZSt12__niter_baseIPKxSt6vectorIxSaIxEEET_N9__gnu_cxx17__normal_iteratorIS5_T0_EE
	movq	%rax, %rbx
	movq	32(%rbp), %rcx
	call	_ZSt12__niter_baseIPKxSt6vectorIxSaIxEEET_N9__gnu_cxx17__normal_iteratorIS5_T0_EE
	movq	%rsi, %r8
	movq	%rbx, %rdx
	movq	%rax, %rcx
	call	_ZSt14__copy_move_a1ILb0EPKxPxET1_T0_S4_S3_
	movq	%rax, %rdx
	leaq	48(%rbp), %rax
	movq	%rax, %rcx
	call	_ZSt12__niter_wrapIPxET_RKS1_S1_
	addq	$32, %rsp
	popq	%rbx
	popq	%rsi
	popq	%rbp
	ret
	.seh_endproc
	.section	.text$_ZSt12__niter_baseIPKxSt6vectorIxSaIxEEET_N9__gnu_cxx17__normal_iteratorIS5_T0_EE,"x"
	.linkonce discard
	.p2align 4
	.globl	_ZSt12__niter_baseIPKxSt6vectorIxSaIxEEET_N9__gnu_cxx17__normal_iteratorIS5_T0_EE
	.def	_ZSt12__niter_baseIPKxSt6vectorIxSaIxEEET_N9__gnu_cxx17__normal_iteratorIS5_T0_EE;	.scl	2;	.type	32;	.endef
	.seh_proc	_ZSt12__niter_baseIPKxSt6vectorIxSaIxEEET_N9__gnu_cxx17__normal_iteratorIS5_T0_EE
_ZSt12__niter_baseIPKxSt6vectorIxSaIxEEET_N9__gnu_cxx17__normal_iteratorIS5_T0_EE:
.LFB9809:
	pushq	%rbp
	.seh_pushreg	%rbp
	movq	%rsp, %rbp
	.seh_setframe	%rbp, 0
	subq	$32, %rsp
	.seh_stackalloc	32
	.seh_endprologue
	movq	%rcx, 16(%rbp)
	leaq	16(%rbp), %rcx
	call	_ZNK9__gnu_cxx17__normal_iteratorIPKxSt6vectorIxSaIxEEE4baseEv
	movq	(%rax), %rax
	addq	$32, %rsp
	popq	%rbp
	ret
	.seh_endproc
	.section	.text$_ZNK9__gnu_cxx17__normal_iteratorIPKxSt6vectorIxSaIxEEE4baseEv,"x"
	.linkonce discard
	.align 2
	.p2align 4
	.globl	_ZNK9__gnu_cxx17__normal_iteratorIPKxSt6vectorIxSaIxEEE4baseEv
	.def	_ZNK9__gnu_cxx17__normal_iteratorIPKxSt6vectorIxSaIxEEE4baseEv;	.scl	2;	.type	32;	.endef
	.seh_proc	_ZNK9__gnu_cxx17__normal_iteratorIPKxSt6vectorIxSaIxEEE4baseEv
_ZNK9__gnu_cxx17__normal_iteratorIPKxSt6vectorIxSaIxEEE4baseEv:
.LFB9810:
	pushq	%rbp
	.seh_pushreg	%rbp
	movq	%rsp, %rbp
	.seh_setframe	%rbp, 0
	.seh_endprologue
	movq	%rcx, 16(%rbp)
	movq	16(%rbp), %rax
	popq	%rbp
	ret
	.seh_endproc
	.text
	.p2align 4
	.def	_Z41__static_initialization_and_destruction_0ii;	.scl	3;	.type	32;	.endef
	.seh_proc	_Z41__static_initialization_and_destruction_0ii
_Z41__static_initialization_and_destruction_0ii:
.LFB9835:
	pushq	%rbp
	.seh_pushreg	%rbp
	movq	%rsp, %rbp
	.seh_setframe	%rbp, 0
	subq	$32, %rsp
	.seh_stackalloc	32
	.seh_endprologue
	movl	%ecx, 16(%rbp)
	movl	%edx, 24(%rbp)
	cmpl	$1, 16(%rbp)
	jne	.L297
	cmpl	$65535, 24(%rbp)
	jne	.L297
	leaq	_ZStL8__ioinit(%rip), %rcx
	call	_ZNSt8ios_base4InitC1Ev
	movq	.refptr.__dso_handle(%rip), %r8
	leaq	_ZStL8__ioinit(%rip), %rdx
	movq	.refptr._ZNSt8ios_base4InitD1Ev(%rip), %rcx
	call	__cxa_atexit
.L297:
	nop
	addq	$32, %rsp
	popq	%rbp
	ret
	.seh_endproc
	.p2align 4
	.def	_GLOBAL__sub_I_main;	.scl	3;	.type	32;	.endef
	.seh_proc	_GLOBAL__sub_I_main
_GLOBAL__sub_I_main:
.LFB9856:
	pushq	%rbp
	.seh_pushreg	%rbp
	movq	%rsp, %rbp
	.seh_setframe	%rbp, 0
	subq	$32, %rsp
	.seh_stackalloc	32
	.seh_endprologue
	movl	$65535, %edx
	movl	$1, %ecx
	call	_Z41__static_initialization_and_destruction_0ii
	nop
	addq	$32, %rsp
	popq	%rbp
	ret
	.seh_endproc
	.section	.ctors,"w"
	.align 8
	.quad	_GLOBAL__sub_I_main
	.ident	"GCC: (GNU) 10.2.0"
	.def	_ZNSt8ios_base15sync_with_stdioEb;	.scl	2;	.type	32;	.endef
	.def	_ZNSt9basic_iosIcSt11char_traitsIcEE3tieEPSo;	.scl	2;	.type	32;	.endef
	.def	_ZNSirsERx;	.scl	2;	.type	32;	.endef
	.def	_ZNSolsEx;	.scl	2;	.type	32;	.endef
	.def	_ZStlsISt11char_traitsIcEERSt13basic_ostreamIcT_ES5_PKc;	.scl	2;	.type	32;	.endef
	.def	_Unwind_Resume;	.scl	2;	.type	32;	.endef
	.def	_ZSt20__throw_length_errorPKc;	.scl	2;	.type	32;	.endef
	.def	__cxa_begin_catch;	.scl	2;	.type	32;	.endef
	.def	__cxa_rethrow;	.scl	2;	.type	32;	.endef
	.def	__cxa_end_catch;	.scl	2;	.type	32;	.endef
	.def	_ZdlPvm;	.scl	2;	.type	32;	.endef
	.def	_ZSt17__throw_bad_allocv;	.scl	2;	.type	32;	.endef
	.def	__real__Znwm;	.scl	2;	.type	32;	.endef
	.def	_Znwm;	.scl	2;	.type	32;	.endef
	.def	memmove;	.scl	2;	.type	32;	.endef
	.def	_ZNSt8ios_base4InitC1Ev;	.scl	2;	.type	32;	.endef
	.def	__cxa_atexit;	.scl	2;	.type	32;	.endef
	.section	.rdata$.refptr._ZNSt8ios_base4InitD1Ev, "dr"
	.globl	.refptr._ZNSt8ios_base4InitD1Ev
	.linkonce	discard
.refptr._ZNSt8ios_base4InitD1Ev:
	.quad	_ZNSt8ios_base4InitD1Ev
	.section	.rdata$.refptr.__dso_handle, "dr"
	.globl	.refptr.__dso_handle
	.linkonce	discard
.refptr.__dso_handle:
	.quad	__dso_handle
	.section	.rdata$.refptr._ZSt4cout, "dr"
	.globl	.refptr._ZSt4cout
	.linkonce	discard
.refptr._ZSt4cout:
	.quad	_ZSt4cout
	.section	.rdata$.refptr._ZSt3cin, "dr"
	.globl	.refptr._ZSt3cin
	.linkonce	discard
.refptr._ZSt3cin:
	.quad	_ZSt3cin
